(dp1
S'Sveta'
p2
(lp3
F0
aF0
aF0
aF0
aF0
aF0
aF0
aF0.29399999999999998
aF0
aF0
aF0
aF0
aF0
aF0
aF0
aF0
aF0
aF0
aF0
aF0
aF0
aF3.6059999999999999
aF2.6309999999999998
aF2.2640000000000002
aF-0.19
aF1.6949999999999998
aF2.2589999999999999
aF0.07999999999999996
aF0.55699999999999994
aF0.495
aF2.3999999999999999
aF1.4350000000000001
aF1.5509999999999999
aF0
aF0.036999999999999839
aF1.323
aF0.42999999999999988
aF0.28400000000000003
aF0.6080000000000001
aF-0.33900000000000008
aF-0.048999999999999988
aF-0.82800000000000007
aF0.82000000000000006
aF-0.498
aF0.020000000000000018
aF-0.33599999999999997
aF-0.10000000000000006
aF1.123
aF0.051000000000000073
aF0.44600000000000006
aF-0.16300000000000001
aF1.7050000000000001
aF0
aF-0.31300000000000006
aF-0.35399999999999998
aF1.6930000000000001
aF-1.4249999999999998
aF0.20900000000000002
aF-0.64400000000000002
aF0
aF-0.072999999999999995
aF0
aF0.36899999999999994
aF0.29899999999999993
aF0.12400000000000003
aF2.1019999999999999
aF-0.56699999999999995
aF0.16799999999999998
aF-0.08300000000000006
aF0.23799999999999999
aF0.31900000000000001
aF-0.79000000000000004
aF0.40800000000000003
aF0.5149999999999999
aF0.85899999999999999
aF0
aF0.86399999999999999
aF-0.93199999999999994
aF0
aF0.52600000000000002
aF0.33499999999999996
aF1.1950000000000001
aF-0.07600000000000004
aF0.27000000000000002
aF0
aF-0.14400000000000004
aF0.063000000000000056
aF1.5049999999999999
aF-0.029999999999999971
aF0.015999999999999986
aF0
aF0
aF0.48599999999999999
aF1.071
aF0.15499999999999997
aF0.47699999999999998
aF1.6270000000000002
aF0.50099999999999989
aF0.56299999999999994
aF0.96000000000000019
aF0.69500000000000006
aF-0.27400000000000002
aF0.38400000000000001
aF1.2370000000000001
aF0.0050000000000000461
aF0
aF0.39600000000000002
aF0.35399999999999998
aF-0.30500000000000005
aF0
asS'Ashley'
p4
(lp5
F0
aF0
aF-0.014000000000000012
aF0
aF0
aF0.67700000000000005
aF0
aF0
aF0
aF0
aF0
aF0
aF0
aF0
aF0
aF0
aF0
aF0
aF0
aF0
aF0
aF0.19400000000000001
aF1.4800000000000002
aF0.36699999999999999
aF0.05099999999999999
aF0.45000000000000001
aF-0.12200000000000005
aF0.98199999999999998
aF-0.307
aF0
aF0.62900000000000011
aF-0.29799999999999993
aF0.254
aF-1.149
aF0.30899999999999994
aF0.24999999999999994
aF-0.30199999999999999
aF-0.55899999999999994
aF-0.25800000000000006
aF0.56699999999999995
aF-0.31900000000000001
aF-0.024999999999999994
aF0.059000000000000018
aF-0.19
aF0
aF-1.3219999999999998
aF-0.031000000000000014
aF1.25
aF0
aF0
aF0
aF0
aF-0.50600000000000001
aF0
aF-0.442
aF-0.92300000000000004
aF0.018999999999999989
aF0
aF0
aF0
aF1.3270000000000004
aF0
aF-0.185
aF0
aF0
aF0.13800000000000001
aF0
aF0.47999999999999993
aF0
aF0
aF1.8899999999999999
aF1.5680000000000001
aF0
aF0
aF0.748
aF0.12800000000000006
aF-1.2269999999999999
aF0.15399999999999997
aF1.417
aF0.316
aF0.375
aF-0.17600000000000002
aF-0.13700000000000001
aF-0.251
aF0
aF0
aF0.111
aF0.019000000000000003
aF0
aF0.48400000000000015
aF0
aF0.38
aF0.88400000000000001
aF2.7250000000000001
aF-0.22800000000000009
aF0
aF-0.029999999999999971
aF0.65300000000000002
aF1.0750000000000002
aF-0.28099999999999992
aF-0.47099999999999997
aF0.090999999999999998
aF-0.73499999999999988
aF-0.002000000000000085
aF0
aF-0.97100000000000009
aF0.55599999999999994
aF-0.5
aF0
aF0
asS'Rain'
p6
(lp7
F0
aF0
aF0
aF0.22899999999999998
aF0
aF0
aF0
aF0
aF0
aF0
aF0
aF0
aF0
aF0
aF0
aF0
aF0
aF0
aF0
aF0
aF0
aF0.64100000000000001
aF4.6859999999999999
aF2.992
aF-0.11600000000000001
aF0
aF1.2319999999999998
aF1.835
aF2.1829999999999998
aF0
aF0.14899999999999999
aF-0.255
aF-0.14200000000000018
aF-0.084000000000000005
aF-0.122
aF0.42300000000000004
aF0.1959999999999999
aF-0.38800000000000001
aF-0.75800000000000001
aF0.38800000000000001
aF0.0059999999999999915
aF0.65500000000000003
aF-0.26800000000000002
aF0
aF0
aF0
aF0
aF0.124
aF0.53400000000000003
aF-0.76400000000000001
aF-0.95800000000000007
aF-0.19
aF0.42799999999999994
aF-0.016
aF-0.47899999999999998
aF1.9360000000000002
aF-0.48999999999999999
aF0
aF0
aF0.54000000000000004
aF0
aF0
aF0
aF0
aF0
aF0
aF0
aF1.0629999999999999
aF0
aF0
aF2.6980000000000004
aF1.9950000000000001
aF0
aF-0.78400000000000003
aF0.28600000000000003
aF-0.42499999999999999
aF0.18700000000000008
aF0.60200000000000009
aF0
aF0.32600000000000001
aF0
aF-0.38200000000000001
aF-1.2650000000000001
aF0.31899999999999995
aF0
aF0.058000000000000024
aF0.21199999999999999
aF0.156
aF0.10300000000000001
aF0.10000000000000006
aF0.018999999999999975
aF0.083999999999999908
aF1.087
aF0.40099999999999997
aF-0.10399999999999998
aF-0.20600000000000002
aF0.14200000000000002
aF1.488
aF0.058999999999999997
aF0.193
aF0.72500000000000009
aF0.96700000000000019
aF1.3910000000000002
aF0.56600000000000006
aF0
aF0
aF0
aF0
aF0.52000000000000002
aF0
asS'Amy'
p8
(lp9
F0
aF0
aF0
aF0
aF0
aF0
aF0
aF0
aF0
aF0
aF0
aF0
aF0
aF0
aF0
aF-0.185
aF0.14000000000000001
aF0
aF0
aF0
aF0
aF-0.39000000000000001
aF0
aF0
aF-0.28700000000000003
aF0
aF-0.114
aF0
aF0.14299999999999999
aF0
aF0
aF0
aF0
aF0
aF0
aF0
aF-0.11
aF0
aF0
aF0
aF0
aF0
aF-0.253
aF0
aF0
aF0
aF-0.24800000000000003
aF0
aF0
aF0
aF0
aF0
aF0
aF0
aF0
aF0
aF0
aF0.16
aF0
aF0
aF0
aF0
aF0
aF0.11799999999999999
aF-0.14999999999999999
aF0
aF0
aF0.47699999999999998
aF0
aF0
aF0
aF0
aF0
aF0
aF0
aF0
aF0
aF0
aF0
aF0.60400000000000009
aF-0.14599999999999999
aF0.35799999999999998
aF-1.2949999999999999
aF0
aF0
aF0
aF0.154
aF0.56399999999999995
aF0
aF0
aF0.29299999999999998
aF-0.254
aF0
aF-0.27300000000000002
aF-0.025000000000000022
aF-0.46200000000000002
aF0.60099999999999998
aF-0.23100000000000001
aF0
aF0
aF0
aF0
aF0
aF0
aF0
aF0
aF0
aF0
aF0
aF0
asS'Kenzie'
p10
(lp11
F0
aF0
aF0
aF0
aF0
aF0
aF1.274
aF-0.32100000000000001
aF0
aF0
aF0
aF0
aF0
aF0
aF0
aF0
aF0
aF0
aF0
aF0
aF0
aF1.7939999999999998
aF3.4899999999999998
aF2.5790000000000002
aF0.55900000000000005
aF2.4669999999999996
aF0.79899999999999993
aF0.91399999999999992
aF0.91299999999999992
aF-0.18100000000000008
aF0.64400000000000002
aF3.1269999999999998
aF0.32100000000000006
aF-0.33500000000000002
aF2.2920000000000003
aF0.021000000000000019
aF-0.45700000000000007
aF0.94700000000000006
aF1.244
aF0.53000000000000003
aF-0.28000000000000003
aF-0.54499999999999982
aF0.35299999999999998
aF0.24700000000000005
aF0
aF0
aF0
aF0
aF0
aF0
aF-0.13299999999999998
aF0.33800000000000002
aF0.96299999999999986
aF0.82099999999999995
aF1.258
aF-0.7649999999999999
aF0.54900000000000004
aF0.086000000000000021
aF0.46299999999999997
aF0.40300000000000002
aF1.649
aF0.064000000000000001
aF2.7509999999999999
aF1.524
aF0.34099999999999997
aF1.9119999999999999
aF-0.26800000000000002
aF2.3990000000000005
aF1.2440000000000002
aF2.9009999999999998
aF0.63
aF1.617
aF-0.216
aF-0.12500000000000003
aF1.7429999999999999
aF0.437
aF0.95300000000000007
aF-0.58299999999999996
aF0.48600000000000004
aF-0.432
aF0
aF-0.15599999999999997
aF-1.0789999999999997
aF0
aF0
aF0.18900000000000006
aF0.25599999999999995
aF0.65899999999999992
aF0.47499999999999992
aF0
aF0.25700000000000001
aF0.64000000000000001
aF0.0069999999999999507
aF0.1949999999999999
aF1.6539999999999999
aF0.38400000000000001
aF0.27600000000000002
aF0.50400000000000011
aF0.48599999999999999
aF0
aF0.13999999999999999
aF-0.70999999999999985
aF0.35499999999999998
aF0.14200000000000002
aF0
aF0
aF0.13499999999999998
aF-0.46599999999999997
aF-0.128
aF0
asS'Chris'
p12
(lp13
F0
aF0
aF0.26300000000000001
aF0
aF0
aF0
aF0
aF0
aF0
aF0
aF0
aF0
aF0
aF0
aF0
aF0
aF0
aF0
aF0
aF0
aF0
aF-0.14100000000000001
aF-0.77100000000000002
aF0
aF0
aF0.28299999999999997
aF1.0550000000000002
aF-0.26099999999999995
aF0.13900000000000001
aF0.33300000000000002
aF0.52099999999999991
aF0.17499999999999999
aF0.27700000000000002
aF0.086999999999999994
aF0.20000000000000001
aF0.151
aF-0.122
aF-0.062000000000000055
aF-0.21699999999999997
aF-1.5679999999999998
aF-0.42599999999999999
aF0.071000000000000008
aF0.097000000000000003
aF0.70399999999999996
aF-0.24399999999999999
aF0
aF-0.022999999999999993
aF-0.34300000000000008
aF0.21299999999999999
aF0
aF0.86099999999999999
aF0.44600000000000001
aF0
aF1.1899999999999999
aF1.857
aF-1.5499999999999998
aF0.17400000000000004
aF0.115
aF0.69699999999999995
aF0
aF-0.39100000000000001
aF0
aF0.69199999999999995
aF-0.43000000000000005
aF-0.24299999999999997
aF-1.2240000000000002
aF0.224
aF0
aF0.63400000000000001
aF0.070000000000000007
aF-0.30199999999999999
aF0.60699999999999998
aF0
aF0.54800000000000004
aF0.80299999999999994
aF0
aF-0.89500000000000024
aF-0.42099999999999993
aF0
aF0
aF-0.32700000000000001
aF0.18100000000000002
aF-1.395
aF0
aF0
aF0
aF0
aF0
aF-0.252
aF0
aF0
aF0
aF0
aF-0.088999999999999996
aF-0.193
aF0
aF-0.090999999999999998
aF0.13999999999999999
aF-0.044999999999999998
aF0
aF0
aF0
aF0
aF0
aF0
aF0
aF0
aF0
aF0
aF0
asS'Tattletale'
p14
(lp15
F0
aF0
aF0
aF0
aF0
aF0
aF0
aF0
aF0
aF0
aF0
aF0
aF0
aF0
aF0
aF0
aF0
aF0
aF0
aF0
aF0
aF0
aF0
aF0
aF0.73799999999999999
aF0
aF0
aF0.127
aF0.020000000000000004
aF0
aF0
aF0.32200000000000001
aF0
aF0
aF0
aF0.41199999999999998
aF0
aF0
aF0
aF0
aF0
aF0.52400000000000002
aF-0.35899999999999999
aF0
aF0
aF0
aF0
aF0
aF0
aF0
aF0
aF0
aF0.13200000000000001
aF0.316
aF0.14400000000000002
aF-1.3877787807814457e-17
aF-1.518
aF0.05099999999999999
aF0
aF0
aF0
aF0
aF0
aF0
aF0
aF0
aF0
aF0
aF0
aF0
aF0
aF-0.189
aF0
aF0
aF0
aF0
aF0
aF0
aF0
aF0
aF0
aF0
aF0
aF0
aF0
aF0
aF0
aF0
aF0
aF0
aF0
aF0
aF0
aF0
aF0
aF0
aF0
aF0.53000000000000003
aF-0.099000000000000005
aF-0.126
aF0.31800000000000006
aF0
aF-0.061000000000000013
aF0
aF-0.24800000000000003
aF0
aF0
aF0.23500000000000001
aF0
aF0
asS'Carol'
p16
(lp17
F0
aF0.29999999999999999
aF0
aF0
aF0
aF0
aF0
aF0.123
aF0
aF0
aF0
aF0
aF0
aF0
aF-0.049000000000000002
aF0.46499999999999997
aF0
aF0
aF0.192
aF0
aF-0.28000000000000003
aF0
aF-0.074999999999999997
aF0
aF0
aF0
aF0
aF0
aF0.13700000000000001
aF0.63700000000000001
aF0
aF0
aF0
aF0
aF0
aF0.3919999999999999
aF0
aF0.61699999999999999
aF-0.55799999999999994
aF0
aF0
aF-0.33899999999999997
aF0.215
aF0.35899999999999999
aF0
aF-0.17000000000000001
aF0
aF0
aF0
aF0
aF0
aF-0.55000000000000004
aF0
aF0
aF0
aF-0.41999999999999998
aF0
aF0.38800000000000001
aF0
aF0.123
aF0.081000000000000016
aF-0.067000000000000004
aF0.22800000000000001
aF0
aF0.094
aF0
aF0
aF0.43099999999999999
aF0.12400000000000003
aF-0.317
aF0.26500000000000001
aF0
aF0
aF-0.056999999999999995
aF0
aF0
aF0.034000000000000016
aF0
aF0
aF-0.01999999999999999
aF-0.57299999999999995
aF0
aF0
aF0.214
aF0
aF0.185
aF0
aF0
aF0
aF0
aF0
aF0
aF0
aF0
aF0
aF-0.31500000000000017
aF0
aF0
aF0
aF0
aF0
aF0
aF0
aF0
aF0
aF0
aF0.070999999999999994
aF0
aF0
aF0
as.