(dp1
S'Sveta'
p2
(lp3
F0
aF0
aF0
aF0
aF0
aF0
aF0
aF0.29399999999999998
aF0
aF0
aF0
aF0
aF0
aF0
aF0
aF0
aF0
aF0
aF0
aF0
aF0
aF0.21211764705882352
aF0.18792857142857142
aF0.16171428571428573
aF-0.19
aF0.21187499999999998
aF0.14118749999999999
aF0.011428571428571423
aF0.18566666666666665
aF0.082500000000000004
aF0.23999999999999999
aF0.095666666666666664
aF0.22157142857142856
aF0
aF0.0023124999999999899
aF0.088200000000000001
aF0.035833333333333321
aF0.071000000000000008
aF0.10133333333333334
aF-0.067800000000000013
aF-0.004899999999999999
aF-0.20700000000000002
aF0.041000000000000002
aF-0.249
aF0.020000000000000018
aF-0.041999999999999996
aF-0.014285714285714294
aF0.12477777777777778
aF0.0072857142857142964
aF0.11150000000000002
aF-0.16300000000000001
aF0.34100000000000003
aF0
aF-0.04471428571428572
aF-0.088499999999999995
aF0.1058125
aF-0.14249999999999999
aF0.052250000000000005
aF-0.21466666666666667
aF0
aF-0.072999999999999995
aF0
aF0.046124999999999992
aF0.09966666666666664
aF0.04133333333333334
aF0.17516666666666666
aF-0.11339999999999999
aF0.16799999999999998
aF-0.016600000000000011
aF0.079333333333333325
aF0.053166666666666668
aF-0.071818181818181823
aF0.058285714285714288
aF0.17166666666666663
aF0.107375
aF0
aF0.14399999999999999
aF-0.31066666666666665
aF0
aF0.13150000000000001
aF0.16749999999999998
aF0.13277777777777777
aF-0.012666666666666673
aF0.13500000000000001
aF0
aF-0.048000000000000015
aF0.015750000000000014
aF0.16722222222222222
aF-0.0037499999999999964
aF0.0039999999999999966
aF0
aF0
aF0.24299999999999999
aF0.2142
aF0.038749999999999993
aF0.039750000000000001
aF0.095705882352941196
aF0.10019999999999998
aF0.28149999999999997
aF0.096000000000000016
aF0.086875000000000008
aF-0.27400000000000002
aF0.042666666666666665
aF0.30925000000000002
aF0.0007142857142857209
aF0
aF0.13200000000000001
aF0.088499999999999995
aF-0.050833333333333341
aF0
asS'Ashley'
p4
(lp5
F0
aF0
aF-0.0070000000000000062
aF0
aF0
aF0.67700000000000005
aF0
aF0
aF0
aF0
aF0
aF0
aF0
aF0
aF0
aF0
aF0
aF0
aF0
aF0
aF0
aF0.032333333333333332
aF0.092500000000000013
aF0.1835
aF0.025499999999999995
aF0.1125
aF-0.0081333333333333362
aF0.16366666666666665
aF-0.307
aF0
aF0.078625000000000014
aF-0.022923076923076918
aF0.084666666666666668
aF-0.071812500000000001
aF0.038624999999999993
aF0.022727272727272721
aF-0.060399999999999995
aF-0.062111111111111103
aF-0.086000000000000021
aF0.11339999999999999
aF-0.31900000000000001
aF-0.024999999999999994
aF0.029500000000000009
aF-0.19
aF0
aF-0.2203333333333333
aF-0.0051666666666666692
aF0.15625
aF0
aF0
aF0
aF0
aF-0.08433333333333333
aF0
aF-0.073666666666666672
aF-0.11537500000000001
aF0.0047499999999999973
aF0
aF0
aF0
aF0.09478571428571432
aF0
aF-0.092499999999999999
aF0
aF0
aF0.13800000000000001
aF0
aF0.079999999999999988
aF0
aF0
aF0.23624999999999999
aF0.112
aF0
aF0
aF0.14960000000000001
aF0.042666666666666686
aF-0.15337499999999998
aF0.025666666666666661
aF0.47233333333333333
aF0.063200000000000006
aF0.375
aF-0.044000000000000004
aF-0.13700000000000001
aF-0.251
aF0
aF0
aF0.111
aF0.019000000000000003
aF0
aF0.037230769230769241
aF0
aF0.095000000000000001
aF0.051999999999999998
aF0.13625000000000001
aF-0.032571428571428584
aF0
aF-0.0024999999999999974
aF0.10883333333333334
aF0.26875000000000004
aF-0.070249999999999979
aF-0.11774999999999999
aF0.090999999999999998
aF-0.14699999999999996
aF-0.00025000000000001063
aF0
aF-0.16183333333333336
aF0.11119999999999999
aF-0.25
aF0
aF0
asS'Rain'
p6
(lp7
F0
aF0
aF0
aF0.057249999999999995
aF0
aF0
aF0
aF0
aF0
aF0
aF0
aF0
aF0
aF0
aF0
aF0
aF0
aF0
aF0
aF0
aF0
aF0.16025
aF0.21299999999999999
aF0.29920000000000002
aF-0.11600000000000001
aF0
aF0.20533333333333328
aF0.14115384615384616
aF0.15592857142857142
aF0
aF0.037249999999999998
aF-0.255
aF-0.014200000000000018
aF-0.028000000000000001
aF-0.122
aF0.10575000000000001
aF0.008521739130434778
aF-0.077600000000000002
aF-0.075800000000000006
aF0.38800000000000001
aF0.0059999999999999915
aF0.093571428571428569
aF-0.26800000000000002
aF0
aF0
aF0
aF0
aF0.124
aF0.048545454545454551
aF-0.25466666666666665
aF-0.13685714285714287
aF-0.095000000000000001
aF0.14266666666666664
aF-0.0080000000000000002
aF-0.15966666666666665
aF0.088000000000000009
aF-0.054444444444444441
aF0
aF0
aF0.033750000000000002
aF0
aF0
aF0
aF0
aF0
aF0
aF0
aF0.21259999999999998
aF0
aF0
aF0.26980000000000004
aF0.24937500000000001
aF0
aF-0.26133333333333336
aF0.095333333333333339
aF-0.21249999999999999
aF0.031166666666666679
aF0.12040000000000002
aF0
aF0.32600000000000001
aF0
aF-0.12733333333333333
aF-0.253
aF0.10633333333333332
aF0
aF0.058000000000000024
aF0.21199999999999999
aF0.156
aF0.051500000000000004
aF0.0090909090909090957
aF0.0047499999999999938
aF0.010499999999999989
aF0.21739999999999998
aF0.20049999999999998
aF-0.012999999999999998
aF-0.068666666666666668
aF0.035500000000000004
aF0.186
aF0.0118
aF0.193
aF0.080555555555555561
aF0.069071428571428589
aF0.081823529411764725
aF0.11320000000000001
aF0
aF0
aF0
aF0
aF0.065000000000000002
aF0
asS'Amy'
p8
(lp9
F0
aF0
aF0
aF0
aF0
aF0
aF0
aF0
aF0
aF0
aF0
aF0
aF0
aF0
aF0
aF-0.185
aF0.070000000000000007
aF0
aF0
aF0
aF0
aF-0.39000000000000001
aF0
aF0
aF-0.095666666666666678
aF0
aF-0.114
aF0
aF0.14299999999999999
aF0
aF0
aF0
aF0
aF0
aF0
aF0
aF-0.11
aF0
aF0
aF0
aF0
aF0
aF-0.253
aF0
aF0
aF0
aF-0.24800000000000003
aF0
aF0
aF0
aF0
aF0
aF0
aF0
aF0
aF0
aF0
aF0.16
aF0
aF0
aF0
aF0
aF0
aF0.11799999999999999
aF-0.14999999999999999
aF0
aF0
aF0.47699999999999998
aF0
aF0
aF0
aF0
aF0
aF0
aF0
aF0
aF0
aF0
aF0
aF0.30200000000000005
aF-0.14599999999999999
aF0.11933333333333333
aF-0.16187499999999999
aF0
aF0
aF0
aF0.154
aF0.18799999999999997
aF0
aF0
aF0.29299999999999998
aF-0.254
aF0
aF-0.27300000000000002
aF-0.025000000000000022
aF-0.11550000000000001
aF0.30049999999999999
aF-0.23100000000000001
aF0
aF0
aF0
aF0
aF0
aF0
aF0
aF0
aF0
aF0
aF0
aF0
asS'Kenzie'
p10
(lp11
F0
aF0
aF0
aF0
aF0
aF0
aF0.42466666666666669
aF-0.32100000000000001
aF0
aF0
aF0
aF0
aF0
aF0
aF0
aF0
aF0
aF0
aF0
aF0
aF0
aF0.14949999999999999
aF0.17449999999999999
aF0.23445454545454547
aF0.27950000000000003
aF0.17621428571428568
aF0.038047619047619045
aF0.053764705882352937
aF0.15216666666666664
aF-0.02262500000000001
aF0.21466666666666667
aF0.12026923076923077
aF0.040125000000000008
aF-0.055833333333333339
aF0.12733333333333335
aF0.0026250000000000023
aF-0.076166666666666674
aF0.31566666666666671
aF0.082933333333333331
aF0.53000000000000003
aF-0.28000000000000003
aF-0.060555555555555536
aF0.17649999999999999
aF0.061750000000000013
aF0
aF0
aF0
aF0
aF0
aF0
aF-0.13299999999999998
aF0.084500000000000006
aF0.19259999999999997
aF0.27366666666666667
aF0.25159999999999999
aF-0.076499999999999985
aF0.054900000000000004
aF0.010750000000000003
aF0.092599999999999988
aF0.40300000000000002
aF0.11778571428571429
aF0.064000000000000001
aF0.12504545454545454
aF0.16933333333333334
aF0.11366666666666665
aF0.12746666666666667
aF-0.26800000000000002
aF0.077387096774193559
aF0.13822222222222225
aF0.16116666666666665
aF0.20999999999999999
aF0.080850000000000005
aF-0.216
aF-0.062500000000000014
aF0.17429999999999998
aF0.14566666666666667
aF0.13614285714285715
aF-0.097166666666666665
aF0.12150000000000001
aF-0.14399999999999999
aF0
aF-0.031199999999999995
aF-0.26974999999999993
aF0
aF0
aF0.031500000000000007
aF0.025599999999999994
aF0.16474999999999998
aF0.067857142857142852
aF0
aF0.25700000000000001
aF0.21333333333333335
aF0.0011666666666666585
aF0.024374999999999987
aF0.15036363636363637
aF0.076800000000000007
aF0.034500000000000003
aF0.029647058823529419
aF0.16200000000000001
aF0
aF0.027999999999999997
aF-0.23666666666666661
aF0.35499999999999998
aF0.047333333333333338
aF0
aF0
aF0.019285714285714285
aF-0.15533333333333332
aF-0.128
aF0
asS'Chris'
p12
(lp13
F0
aF0
aF0.26300000000000001
aF0
aF0
aF0
aF0
aF0
aF0
aF0
aF0
aF0
aF0
aF0
aF0
aF0
aF0
aF0
aF0
aF0
aF0
aF-0.070500000000000007
aF-0.085666666666666669
aF0
aF0
aF0.070749999999999993
aF0.08115384615384616
aF-0.023727272727272722
aF0.034750000000000003
aF0.33300000000000002
aF0.057888888888888879
aF0.029166666666666664
aF0.069250000000000006
aF0.086999999999999994
aF0.20000000000000001
aF0.075499999999999998
aF-0.030499999999999999
aF-0.020666666666666684
aF-0.10849999999999999
aF-0.22399999999999998
aF-0.21299999999999999
aF0.023666666666666669
aF0.048500000000000001
aF0.35199999999999998
aF-0.24399999999999999
aF0
aF-0.0057499999999999982
aF-0.038111111111111123
aF0.21299999999999999
aF0
aF0.107625
aF0.223
aF0
aF0.13222222222222221
aF0.20633333333333334
aF-0.30999999999999994
aF0.034800000000000011
aF0.115
aF0.23233333333333331
aF0
aF-0.048875000000000002
aF0
aF0.062909090909090901
aF-0.061428571428571437
aF-0.034714285714285711
aF-0.087428571428571439
aF0.112
aF0
aF0.317
aF0.070000000000000007
aF-0.050333333333333334
aF0.075874999999999998
aF0
aF0.27400000000000002
aF0.16059999999999999
aF0
aF-0.11187500000000003
aF-0.070166666666666655
aF0
aF0
aF-0.32700000000000001
aF0.060333333333333343
aF-0.19928571428571429
aF0
aF0
aF0
aF0
aF0
aF-0.252
aF0
aF0
aF0
aF0
aF-0.044499999999999998
aF-0.193
aF0
aF-0.090999999999999998
aF0.13999999999999999
aF-0.044999999999999998
aF0
aF0
aF0
aF0
aF0
aF0
aF0
aF0
aF0
aF0
aF0
asS'Tattletale'
p14
(lp15
F0
aF0
aF0
aF0
aF0
aF0
aF0
aF0
aF0
aF0
aF0
aF0
aF0
aF0
aF0
aF0
aF0
aF0
aF0
aF0
aF0
aF0
aF0
aF0
aF0.36899999999999999
aF0
aF0
aF0.063500000000000001
aF0.020000000000000004
aF0
aF0
aF0.32200000000000001
aF0
aF0
aF0
aF0.41199999999999998
aF0
aF0
aF0
aF0
aF0
aF0.52400000000000002
aF-0.35899999999999999
aF0
aF0
aF0
aF0
aF0
aF0
aF0
aF0
aF0
aF0.066000000000000003
aF0.063200000000000006
aF0.14400000000000002
aF-2.7755575615628915e-18
aF-0.10842857142857143
aF0.025499999999999995
aF0
aF0
aF0
aF0
aF0
aF0
aF0
aF0
aF0
aF0
aF0
aF0
aF0
aF-0.189
aF0
aF0
aF0
aF0
aF0
aF0
aF0
aF0
aF0
aF0
aF0
aF0
aF0
aF0
aF0
aF0
aF0
aF0
aF0
aF0
aF0
aF0
aF0
aF0
aF0
aF0.26500000000000001
aF-0.049500000000000002
aF-0.126
aF0.031800000000000009
aF0
aF-0.061000000000000013
aF0
aF-0.08266666666666668
aF0
aF0
aF0.23500000000000001
aF0
aF0
asS'Carol'
p16
(lp17
F0
aF0.29999999999999999
aF0
aF0
aF0
aF0
aF0
aF0.123
aF0
aF0
aF0
aF0
aF0
aF0
aF-0.049000000000000002
aF0.051666666666666666
aF0
aF0
aF0.096000000000000002
aF0
aF-0.28000000000000003
aF0
aF-0.074999999999999997
aF0
aF0
aF0
aF0
aF0
aF0.045666666666666668
aF0.12740000000000001
aF0
aF0
aF0
aF0
aF0
aF0.078399999999999984
aF0
aF0.3085
aF-0.18599999999999997
aF0
aF0
aF-0.16949999999999998
aF0.1075
aF0.071800000000000003
aF0
aF-0.17000000000000001
aF0
aF0
aF0
aF0
aF0
aF-0.55000000000000004
aF0
aF0
aF0
aF-0.41999999999999998
aF0
aF0.38800000000000001
aF0
aF0.123
aF0.081000000000000016
aF-0.033500000000000002
aF0.22800000000000001
aF0
aF0.094
aF0
aF0
aF0.14366666666666666
aF0.12400000000000003
aF-0.079250000000000001
aF0.26500000000000001
aF0
aF0
aF-0.056999999999999995
aF0
aF0
aF0.0068000000000000031
aF0
aF0
aF-0.01999999999999999
aF-0.063666666666666663
aF0
aF0
aF0.214
aF0
aF0.185
aF0
aF0
aF0
aF0
aF0
aF0
aF0
aF0
aF0
aF-0.026250000000000013
aF0
aF0
aF0
aF0
aF0
aF0
aF0
aF0
aF0
aF0
aF0.070999999999999994
aF0
aF0
aF0
as.