(dp1
S'Sveta'
p2
(lp3
F0
aF0
aF0
aF0
aF0
aF0
aF0
aF0
aF0
aF0
aF0
aF0
aF0
aF0
aF0
aF0
aF0
aF0
aF0
aF0
aF0
aF0
aF0
aF0
aF0.20611111111111111
aF0.31714876033057848
aF0.090707070707070708
aF0
aF-0.20000000000000001
aF0.39404761904761904
aF0.15661848072562362
aF-0.12642857142857142
aF0.028124999999999983
aF0.089999999999999997
aF0
aF0.12125
aF0.59087301587301588
aF-0.024166666666666649
aF0
aF0
aF0.029761904761904746
aF-0.3125
aF0.19868777056277057
aF0.17395833333333335
aF-0.20499999999999999
aF0.22641666666666663
aF0.27000000000000002
aF0.13277777777777777
aF0.099769119769119743
aF0.071111111111111111
aF0.18452380952380953
aF0.16457671957671954
aF-0.051851851851851864
aF0
aF-0.05185185185185185
aF0.095000000000000001
aF0.11819444444444442
aF0.070238095238095238
aF0
aF0
aF0.13722222222222222
aF0.25
aF0.34583333333333338
aF-0.66666666666666663
aF-0.13578869047619049
aF-0.45000000000000001
aF0.00083333333333333588
aF-0.086160714285714285
aF0.012500000000000004
aF0
aF0
aF0.046666666666666676
aF0
aF0
aF0.29999999999999999
aF0
aF0.69999999999999996
aF0
aF0
aF0
aF0
aF0.31160714285714286
aF0.55000000000000004
aF0.22499999999999998
aF0.13710317460317462
aF-0.018055555555555561
aF0.14999999999999999
aF0
aF0
aF0.10208333333333332
aF-0.5
aF-0.073931623931623933
aF0.040476190476190492
aF0.18240740740740738
aF0.0069444444444444475
aF0.11148313492063493
aF0
aF0.033333333333333326
aF-0.15625
aF0
aF0.59999999999999998
aF0.052840909090909091
aF0
aF0.41666666666666669
aF0.35277777777777769
aF-0.14427083333333332
aF0.55000000000000004
aF0
aF0.091666666666666646
aF-0.17132936507936508
aF0
aF0.21666666666666667
aF-0.05572916666666667
aF0
aF0.16154040404040404
aF0
aF0
aF0.75
aF0.072500000000000009
aF0.15000000000000002
aF0
aF0
aF0.12159090909090908
aF0.069155092592592587
aF0.14659090909090908
aF0.3125
aF0.11111111111111109
aF-0.021768707482993199
aF-0.26666666666666666
aF0.0076003086419752924
aF0.32854166666666662
aF0
aF0
aF0
aF0
aF0
aF0
aF0
aF0
aF0
aF0
aF0
aF0
aF0
aF0
aF0
aF0
aF0
aF0
aF0
aF0
aF0
aF0
aF0
aF0
aF0.20611111111111111
aF0.31714876033057848
aF0.090707070707070708
aF0
aF-0.20000000000000001
aF0.39404761904761904
aF0.15661848072562362
aF-0.12642857142857142
aF0.028124999999999983
aF0.089999999999999997
aF0
aF0.12125
aF0.12125
aF0.59087301587301588
aF-0.024166666666666649
aF0
aF0
aF0.029761904761904746
aF-0.3125
aF0.19868777056277057
aF0.17395833333333335
aF-0.20499999999999999
aF0.22641666666666663
aF0.22641666666666663
aF0.27000000000000002
aF0.13277777777777777
aF0.099769119769119743
aF0.071111111111111111
aF0.18452380952380953
aF0.16457671957671954
aF-0.051851851851851864
aF0
aF-0.05185185185185185
aF0.095000000000000001
aF0.11819444444444442
aF0.070238095238095238
aF0
aF0
aF0.13722222222222222
aF0.13722222222222222
aF0.25
aF0.34583333333333338
aF-0.66666666666666663
aF-0.13578869047619049
aF-0.45000000000000001
aF0.00083333333333333588
aF-0.086160714285714285
aF0.012500000000000004
aF0
aF0
aF0
aF0.046666666666666676
aF0
aF0
aF0
aF0.29999999999999999
aF0
aF0.69999999999999996
aF0
aF0
aF0
aF0
aF0.31160714285714286
aF0.31160714285714286
aF0.55000000000000004
aF0.22499999999999998
aF0.13710317460317462
aF-0.018055555555555561
aF0.14999999999999999
aF0
aF0
aF0.10208333333333332
aF0.10208333333333332
aF-0.5
aF-0.073931623931623933
aF0.040476190476190492
aF0.18240740740740738
aF0.0069444444444444475
aF0.11148313492063493
aF0
aF0.033333333333333326
aF-0.15625
aF0
aF0.59999999999999998
aF0.052840909090909091
aF0
aF0.41666666666666669
aF0.41666666666666669
aF0.35277777777777769
aF-0.14427083333333332
aF0.55000000000000004
aF0
aF0.091666666666666646
aF-0.17132936507936508
aF0
aF0.21666666666666667
aF-0.05572916666666667
aF0
aF0.16154040404040404
aF0
aF0
aF0.75
aF0.072500000000000009
aF0.15000000000000002
aF0
aF0
aF0.12159090909090908
aF0.12159090909090908
aF0.069155092592592587
aF0.14659090909090908
aF0.3125
aF0.11111111111111109
aF-0.021768707482993199
aF-0.26666666666666666
aF0.0076003086419752924
aF0.32854166666666662
aF0
aF0
aF0
asS'Ashley'
p4
(lp5
F0
aF0
aF0
aF0
aF0
aF0
aF0
aF0
aF0
aF0
aF0
aF0
aF0
aF0
aF0
aF0
aF0
aF0
aF0
aF0
aF0
aF0
aF0
aF0
aF0.069999999999999993
aF3.0839528461809902e-18
aF0.33148148148148149
aF0
aF-0.19791666666666669
aF0.31666666666666665
aF-0.10525793650793651
aF0.19892857142857143
aF-0.13809523809523808
aF0
aF0
aF0.057936507936507939
aF0.13459595959595957
aF0.29999999999999999
aF0
aF-0.033033769063180826
aF0.030266203703703691
aF0
aF0.15867346938775512
aF0.2902777777777778
aF0.089285714285714288
aF-0.14166666666666661
aF-0.090624999999999983
aF0.22500000000000001
aF0
aF-0.20000000000000001
aF0
aF0.024999999999999994
aF0.5
aF0
aF-0.3979166666666667
aF0.13194444444444445
aF0.17080555555555554
aF0
aF0
aF0
aF0
aF0
aF0
aF0.098717948717948728
aF-0.40000000000000002
aF-0.14166666666666664
aF-0.066666666666666666
aF0.12197802197802199
aF0
aF0
aF0.20000000000000001
aF0.25538624338624338
aF0
aF-0.066468253968253968
aF0.11717836257309941
aF-0.095549886621315222
aF0.16037312783002439
aF-0.07843915343915342
aF-0.092488425925925918
aF0.11674750146972368
aF-0.034999999999999996
aF-0.3888888888888889
aF0
aF0
aF0.59999999999999998
aF0
aF0.32142857142857145
aF0.093750000000000028
aF0
aF0.2857142857142857
aF0
aF0.39458333333333329
aF0.13665674603174602
aF0
aF-0.050000000000000003
aF0.11950757575757576
aF0
aF-0.14861111111111111
aF0.068055555555555564
aF0.59999999999999998
aF-0.046759259259259257
aF0.29999999999999999
aF0
aF0.5
aF-0.12291666666666665
aF-0.15000000000000005
aF0.125
aF0
aF0
aF0.25
aF0
aF0.068750000000000006
aF0
aF0
aF0.094091880341880346
aF0
aF-0.018750000000000003
aF0.2096861471861472
aF0.30294990503323832
aF0.1312962962962963
aF-0.41666666666666663
aF0
aF-0.050000000000000003
aF0.054464285714285729
aF0.23472222222222219
aF0.30000000000000004
aF0.17999999999999994
aF-0.096874999999999989
aF-0.037499999999999999
aF-0.44166666666666671
aF0.31488095238095243
aF0
aF0
aF0
aF0
aF0
aF0
aF0
aF0
aF0
aF0
aF0
aF0
aF0
aF0
aF0
aF0
aF0
aF0
aF0
aF0
aF0
aF0
aF0
aF0
aF0.069999999999999993
aF3.0839528461809902e-18
aF0.33148148148148149
aF0
aF-0.19791666666666669
aF0.31666666666666665
aF-0.10525793650793651
aF0.19892857142857143
aF-0.13809523809523808
aF0
aF0
aF0.057936507936507939
aF0.057936507936507939
aF0.13459595959595957
aF0.29999999999999999
aF0
aF-0.033033769063180826
aF0.030266203703703691
aF0
aF0.15867346938775512
aF0.2902777777777778
aF0.089285714285714288
aF-0.14166666666666661
aF-0.14166666666666661
aF-0.090624999999999983
aF0.22500000000000001
aF0
aF-0.20000000000000001
aF0
aF0.024999999999999994
aF0.5
aF0
aF-0.3979166666666667
aF0.13194444444444445
aF0.17080555555555554
aF0
aF0
aF0
aF0
aF0
aF0
aF0
aF0.098717948717948728
aF-0.40000000000000002
aF-0.14166666666666664
aF-0.066666666666666666
aF0.12197802197802199
aF0
aF0
aF0
aF0.20000000000000001
aF0.25538624338624338
aF0
aF-0.066468253968253968
aF-0.066468253968253968
aF0.11717836257309941
aF-0.095549886621315222
aF0.16037312783002439
aF-0.07843915343915342
aF-0.092488425925925918
aF0.11674750146972368
aF-0.034999999999999996
aF-0.3888888888888889
aF-0.3888888888888889
aF0
aF0
aF0.59999999999999998
aF0
aF0.32142857142857145
aF0.093750000000000028
aF0
aF0.2857142857142857
aF0.2857142857142857
aF0
aF0.39458333333333329
aF0.13665674603174602
aF0
aF-0.050000000000000003
aF0.11950757575757576
aF0
aF-0.14861111111111111
aF0.068055555555555564
aF0.59999999999999998
aF-0.046759259259259257
aF0.29999999999999999
aF0
aF0.5
aF0.5
aF-0.12291666666666665
aF-0.15000000000000005
aF0.125
aF0
aF0
aF0.25
aF0
aF0.068750000000000006
aF0
aF0
aF0.094091880341880346
aF0
aF-0.018750000000000003
aF0.2096861471861472
aF0.30294990503323832
aF0.1312962962962963
aF-0.41666666666666663
aF0
aF-0.050000000000000003
aF-0.050000000000000003
aF0.054464285714285729
aF0.23472222222222219
aF0.30000000000000004
aF0.17999999999999994
aF-0.096874999999999989
aF-0.037499999999999999
aF-0.44166666666666671
aF0.31488095238095243
aF0
aF0
aF0
asS'Rain'
p6
(lp7
F0
aF0
aF0
aF0
aF0
aF0.087499999999999994
aF0
aF0
aF0
aF0
aF0
aF0
aF0
aF0
aF0
aF0
aF0
aF0
aF0
aF0
aF0
aF0
aF0
aF0
aF0.5
aF0.21267361111111108
aF0.2205555555555555
aF0
aF0
aF0
aF0.067283950617283941
aF0.034375000000000017
aF0.1408564814814815
aF0
aF0
aF-0.125
aF-0.077777777777777793
aF0.20347222222222225
aF0.024494949494949479
aF0.051388888888888887
aF0
aF0.074435568086883869
aF0.024999999999999994
aF-0.043518518518518519
aF-0.082881773399014771
aF-0.043518518518518505
aF-0.23333333333333331
aF0.5
aF0.030769230769230771
aF-0.066502759971509978
aF-0.063586956521739138
aF0
aF0
aF0
aF0
aF0
aF0
aF0.08487103174603175
aF0
aF0.40000000000000002
aF0.3214285714285714
aF-0.0083333333333333384
aF-0.16666666666666666
aF0.10000000000000001
aF0.14999999999999999
aF0.041666666666666685
aF-0.0030158730158730109
aF0.059860509860509836
aF0
aF-0.20277777777777778
aF0.16879910213243546
aF0
aF0
aF0
aF-0.14583333333333334
aF0
aF-0.5
aF0
aF0
aF0
aF0
aF0
aF0
aF0
aF0
aF0
aF0.34157647907647903
aF0
aF0
aF0
aF0
aF0.30000000000000004
aF0.3122448979591837
aF0
aF-0.36805555555555558
aF0.3666666666666667
aF-1
aF0.13333333333333333
aF0.27142857142857141
aF0
aF0.5
aF0
aF-0.15555555555555559
aF0.5
aF0.021428571428571436
aF-0.068650793650793643
aF0.21785714285714286
aF0
aF0.5
aF-0.1875
aF0
aF-0.45000000000000001
aF0.25
aF0
aF0.09610229276895943
aF0.064814814814814797
aF0.27678571428571425
aF0.082330246913580249
aF-0.20833333333333331
aF-0.21344444444444441
aF0
aF0
aF-0.15555555555555559
aF0.33531746031746029
aF0.083333333333333329
aF-0.11597222222222221
aF0.58166666666666667
aF0.081083333333333327
aF0.0085317460317460275
aF0.069787157287157287
aF0.375
aF0
aF0
aF0
aF0
aF0
aF0.087499999999999994
aF0
aF0
aF0
aF0
aF0
aF0
aF0
aF0
aF0
aF0
aF0
aF0
aF0
aF0
aF0
aF0
aF0
aF0
aF0.5
aF0.21267361111111108
aF0.2205555555555555
aF0
aF0
aF0
aF0.067283950617283941
aF0.034375000000000017
aF0.1408564814814815
aF0
aF0
aF-0.125
aF-0.125
aF-0.077777777777777793
aF0.20347222222222225
aF0.024494949494949479
aF0.051388888888888887
aF0
aF0.074435568086883869
aF0.024999999999999994
aF-0.043518518518518519
aF-0.082881773399014771
aF-0.043518518518518505
aF-0.043518518518518505
aF-0.23333333333333331
aF0.5
aF0.030769230769230771
aF-0.066502759971509978
aF-0.063586956521739138
aF0
aF0
aF0
aF0
aF0
aF0
aF0.08487103174603175
aF0
aF0.40000000000000002
aF0.3214285714285714
aF0.3214285714285714
aF-0.0083333333333333384
aF-0.16666666666666666
aF0.10000000000000001
aF0.14999999999999999
aF0.041666666666666685
aF-0.0030158730158730109
aF0.059860509860509836
aF0
aF-0.20277777777777778
aF-0.20277777777777778
aF0.16879910213243546
aF0
aF0
aF0
aF0
aF-0.14583333333333334
aF0
aF-0.5
aF0
aF0
aF0
aF0
aF0
aF0
aF0
aF0
aF0
aF0
aF0.34157647907647903
aF0
aF0
aF0
aF0
aF0
aF0.30000000000000004
aF0.3122448979591837
aF0
aF-0.36805555555555558
aF0.3666666666666667
aF-1
aF0.13333333333333333
aF0.27142857142857141
aF0
aF0.5
aF0
aF-0.15555555555555559
aF0.5
aF0.5
aF0.021428571428571436
aF-0.068650793650793643
aF0.21785714285714286
aF0
aF0.5
aF-0.1875
aF0
aF-0.45000000000000001
aF0.25
aF0
aF0.09610229276895943
aF0.064814814814814797
aF0.27678571428571425
aF0.082330246913580249
aF-0.20833333333333331
aF-0.21344444444444441
aF0
aF0
aF-0.15555555555555559
aF-0.15555555555555559
aF0.33531746031746029
aF0.083333333333333329
aF-0.11597222222222221
aF0.58166666666666667
aF0.081083333333333327
aF0.0085317460317460275
aF0.069787157287157287
aF0.375
aF0
aF0
aF0
asS'Amy'
p8
(lp9
F0
aF0
aF0
aF0
aF0
aF0
aF0
aF0
aF0
aF0
aF0
aF0
aF0
aF0
aF0
aF0
aF0
aF0
aF0.5
aF0
aF0
aF0
aF0
aF0
aF0
aF0
aF0
aF0
aF0.19285714285714284
aF0
aF0
aF0
aF0
aF0
aF0
aF0
aF0
aF0
aF0
aF0
aF0
aF0
aF0
aF0.20000000000000001
aF0
aF0
aF0
aF0
aF0
aF0
aF0
aF0
aF0
aF0
aF0
aF0
aF0
aF0
aF0
aF-0.10000000000000001
aF0
aF0
aF0
aF0
aF0
aF0
aF0
aF0
aF0.5
aF0
aF0
aF0
aF0
aF0
aF0
aF0
aF0
aF0
aF0
aF0
aF0
aF0
aF-0.14999999999999999
aF-0.29166666666666669
aF0
aF0
aF0.11666666666666665
aF0
aF0
aF0.40000000000000002
aF0
aF0
aF0
aF0
aF0
aF0
aF0
aF0
aF0
aF0
aF0.375
aF0
aF0
aF-0.375
aF0.42222222222222228
aF0.125
aF0
aF0
aF0
aF-0.022222222222222216
aF0
aF0.051562499999999983
aF0
aF0
aF0
aF0.43333333333333335
aF0
aF0
aF0
aF0.018809523809523814
aF0
aF0
aF0.20000000000000001
aF0.52500000000000002
aF0
aF0
aF0
aF0
aF0
aF0
aF0
aF0
aF0
aF0
aF0
aF0
aF0
aF0
aF0
aF0
aF0
aF0
aF0
aF0
aF0
aF0
aF0
aF0
aF0
aF0.5
aF0
aF0
aF0
aF0
aF0
aF0
aF0
aF0
aF0
aF0.19285714285714284
aF0
aF0
aF0
aF0
aF0
aF0
aF0
aF0
aF0
aF0
aF0
aF0
aF0
aF0
aF0
aF0.20000000000000001
aF0
aF0
aF0
aF0
aF0
aF0
aF0
aF0
aF0
aF0
aF0
aF0
aF0
aF0
aF0
aF0
aF-0.10000000000000001
aF0
aF0
aF0
aF0
aF0
aF0
aF0
aF0
aF0
aF0.5
aF0
aF0
aF0
aF0
aF0
aF0
aF0
aF0
aF0
aF0
aF0
aF0
aF0
aF0
aF0
aF0
aF-0.14999999999999999
aF-0.29166666666666669
aF0
aF0
aF0.11666666666666665
aF0
aF0
aF0.40000000000000002
aF0.40000000000000002
aF0
aF0
aF0
aF0
aF0
aF0
aF0
aF0
aF0
aF0
aF0.375
aF0
aF0
aF-0.375
aF-0.375
aF0.42222222222222228
aF0.125
aF0
aF0
aF0
aF-0.022222222222222216
aF0
aF0.051562499999999983
aF0
aF0
aF0
aF0.43333333333333335
aF0
aF0
aF0
aF0.018809523809523814
aF0
aF0
aF0.20000000000000001
aF0.20000000000000001
aF0.52500000000000002
aF0
aF0
aF0
aF0
aF0
aF0
aF0
aF0
aF0
aF0
asS'Kenzie'
p10
(lp11
F0
aF0
aF0
aF0
aF0
aF0
aF0
aF0
aF0.3585714285714286
aF-0.75
aF0
aF0
aF0
aF0
aF0
aF0
aF0
aF0
aF0
aF0
aF0
aF0
aF0
aF0
aF0.11275252525252527
aF0.18238095238095234
aF0.17002525252525255
aF0
aF0.050000000000000003
aF0.1610651974288338
aF0.15571469907407404
aF0.16783333333333333
aF0.12500000000000003
aF-0.059920634920634909
aF0
aF0.040972222222222222
aF0.21274125180375181
aF0.35265625
aF0
aF-0.11851851851851852
aF0.15883838383838383
aF0.083333333333333329
aF-0.064781746031746024
aF0.022718253968253957
aF0
aF-0.044999999999999998
aF0.099471380471380461
aF-0.10000000000000001
aF-0.24999999999999992
aF-0.0076596023024594418
aF0
aF0.075925925925925938
aF-0.055381944444444442
aF0
aF0
aF0.10000000000000001
aF0
aF0
aF0
aF0
aF0
aF0
aF-0.15476190476190474
aF0.32500000000000001
aF0.19999999999999998
aF0.37916666666666665
aF0.025793650793650806
aF0.63541666666666674
aF0.10138888888888889
aF0.31392857142857145
aF0
aF0.34822530864197532
aF0.16944444444444443
aF0.55000000000000004
aF0.625
aF0
aF-0.025000000000000001
aF0
aF0
aF0
aF0
aF0.23851851851851849
aF-0.0091346153846153869
aF0.037499999999999992
aF0.14652777777777776
aF-0.125
aF0.15876623376623378
aF0.12206928873595538
aF0
aF0.056851851851851855
aF0.19551917989417988
aF0.43727272727272731
aF0.20831529581529581
aF0.10000000000000001
aF0
aF0.28307291666666667
aF0.26984126984126983
aF0.075173611111111108
aF0
aF0.24142857142857146
aF0.46249999999999997
aF-0.041810966810966792
aF0
aF0
aF0.033333333333333326
aF-0.041666666666666657
aF-0.025000000000000001
aF0
aF0.096428571428571419
aF0.068154761904761912
aF0
aF0.24374999999999999
aF-0.11249999999999996
aF0
aF0
aF0.3666666666666667
aF0.36064814814814811
aF0.096031746031746038
aF0.14285714285714282
aF0.31349206349206354
aF0.328125
aF0
aF0.13416666666666668
aF0.10787037037037038
aF0.10212121212121211
aF0.062500000000000028
aF-0.1166666666666667
aF0.10416666666666666
aF-0.086805555555555539
aF0
aF-0.090277777777777776
aF0
aF0
aF0
aF0
aF0
aF0
aF0
aF0
aF0.3585714285714286
aF-0.75
aF0
aF0
aF0
aF0
aF0
aF0
aF0
aF0
aF0
aF0
aF0
aF0
aF0
aF0
aF0.11275252525252527
aF0.18238095238095234
aF0.17002525252525255
aF0
aF0.050000000000000003
aF0.1610651974288338
aF0.15571469907407404
aF0.16783333333333333
aF0.12500000000000003
aF-0.059920634920634909
aF0
aF0.040972222222222222
aF0.040972222222222222
aF0.21274125180375181
aF0.35265625
aF0
aF-0.11851851851851852
aF0.15883838383838383
aF0.083333333333333329
aF-0.064781746031746024
aF0.022718253968253957
aF0
aF-0.044999999999999998
aF-0.044999999999999998
aF0.099471380471380461
aF-0.10000000000000001
aF-0.24999999999999992
aF-0.0076596023024594418
aF0
aF0.075925925925925938
aF-0.055381944444444442
aF0
aF0
aF0.10000000000000001
aF0
aF0
aF0
aF0
aF0
aF0
aF0
aF-0.15476190476190474
aF0.32500000000000001
aF0.19999999999999998
aF0.37916666666666665
aF0.025793650793650806
aF0.63541666666666674
aF0.10138888888888889
aF0.31392857142857145
aF0.31392857142857145
aF0
aF0.34822530864197532
aF0.16944444444444443
aF0.55000000000000004
aF0.55000000000000004
aF0.625
aF0
aF-0.025000000000000001
aF0
aF0
aF0
aF0
aF0.23851851851851849
aF0.23851851851851849
aF-0.0091346153846153869
aF0.037499999999999992
aF0.14652777777777776
aF-0.125
aF0.15876623376623378
aF0.12206928873595538
aF0
aF0.056851851851851855
aF0.056851851851851855
aF0.19551917989417988
aF0.43727272727272731
aF0.20831529581529581
aF0.10000000000000001
aF0
aF0.28307291666666667
aF0.26984126984126983
aF0.075173611111111108
aF0
aF0.24142857142857146
aF0.46249999999999997
aF-0.041810966810966792
aF0
aF0
aF0
aF0.033333333333333326
aF-0.041666666666666657
aF-0.025000000000000001
aF0
aF0.096428571428571419
aF0.068154761904761912
aF0
aF0.24374999999999999
aF-0.11249999999999996
aF0
aF0
aF0.3666666666666667
aF0.36064814814814811
aF0.096031746031746038
aF0.14285714285714282
aF0.31349206349206354
aF0.328125
aF0
aF0.13416666666666668
aF0.13416666666666668
aF0.10787037037037038
aF0.10212121212121211
aF0.062500000000000028
aF-0.1166666666666667
aF0.10416666666666666
aF-0.086805555555555539
aF0
aF-0.090277777777777776
aF0
aF0
aF0
asS'Chris'
p12
(lp13
F0
aF0
aF0
aF0
aF0
aF0
aF0
aF0
aF0
aF0
aF0
aF0
aF0
aF0
aF0
aF0
aF0
aF0
aF0
aF0
aF0
aF0
aF0
aF0
aF0.18174603174603177
aF0.071123321123321093
aF0
aF0
aF0
aF0.072619047619047611
aF0.062348828420256984
aF0.18888888888888888
aF-0.15555555555555556
aF0.5
aF0
aF0.14333333333333334
aF0.13544973544973543
aF-0.043650793650793655
aF0
aF0.20833333333333331
aF0
aF0
aF-0.084722222222222213
aF-0.40729166666666666
aF0
aF0.037499999999999978
aF-0.0047619047619047632
aF0.11334134615384615
aF0.012499999999999997
aF-0.050000000000000003
aF-0.125
aF0.22395833333333337
aF0.25
aF0
aF0
aF-0.17344444444444446
aF-0.0060185185185185107
aF0.10000000000000001
aF0
aF0
aF0
aF0.35380952380952374
aF0
aF0
aF0.073472222222222217
aF0.070000000000000021
aF-0.053333333333333344
aF0.18055555555555555
aF0.375
aF0.38148148148148148
aF0
aF0.13472222222222222
aF0
aF0
aF0
aF0
aF0.5
aF0
aF0
aF0
aF0
aF0.27641025641025635
aF-0.069907407407407404
aF-0.34259259259259256
aF0.029735819735819714
aF-0.0625
aF0
aF0
aF0
aF0
aF0
aF-0.050000000000000017
aF0.12666666666666668
aF0
aF0.010648148148148143
aF0.022916666666666672
aF0
aF0.065873015873015875
aF-0.050000000000000017
aF0
aF0
aF-0.049999999999999989
aF0
aF0.20000000000000001
aF0.10000000000000005
aF-0.074259259259259261
aF0
aF0
aF0
aF0
aF0
aF0
aF1
aF0
aF0
aF0
aF0
aF-0.25
aF-0.23749999999999999
aF-0.11904761904761904
aF0
aF0
aF0
aF0
aF-0.20833333333333334
aF0.42499999999999999
aF0
aF0.125
aF0
aF0
aF0
aF0
aF0
aF0
aF0
aF0
aF0
aF0
aF0
aF0
aF0
aF0
aF0
aF0
aF0
aF0
aF0
aF0
aF0
aF0
aF0
aF0
aF0
aF0
aF0
aF0.18174603174603177
aF0.071123321123321093
aF0
aF0
aF0
aF0.072619047619047611
aF0.062348828420256984
aF0.18888888888888888
aF-0.15555555555555556
aF0.5
aF0
aF0.14333333333333334
aF0.14333333333333334
aF0.13544973544973543
aF-0.043650793650793655
aF0
aF0.20833333333333331
aF0
aF0
aF-0.084722222222222213
aF-0.40729166666666666
aF0
aF0.037499999999999978
aF0.037499999999999978
aF-0.0047619047619047632
aF0.11334134615384615
aF0.012499999999999997
aF-0.050000000000000003
aF-0.125
aF0.22395833333333337
aF0.25
aF0
aF0
aF-0.17344444444444446
aF-0.0060185185185185107
aF0.10000000000000001
aF0
aF0
aF0
aF0
aF0.35380952380952374
aF0
aF0
aF0.073472222222222217
aF0.070000000000000021
aF-0.053333333333333344
aF0.18055555555555555
aF0.375
aF0.38148148148148148
aF0.38148148148148148
aF0
aF0.13472222222222222
aF0
aF0
aF0
aF0
aF0
aF0.5
aF0
aF0
aF0
aF0
aF0.27641025641025635
aF0.27641025641025635
aF-0.069907407407407404
aF-0.34259259259259256
aF0.029735819735819714
aF-0.0625
aF0
aF0
aF0
aF0
aF0
aF0
aF-0.050000000000000017
aF0.12666666666666668
aF0
aF0.010648148148148143
aF0.022916666666666672
aF0
aF0.065873015873015875
aF-0.050000000000000017
aF0
aF0
aF-0.049999999999999989
aF0
aF0.20000000000000001
aF0.20000000000000001
aF0.10000000000000005
aF-0.074259259259259261
aF0
aF0
aF0
aF0
aF0
aF0
aF1
aF0
aF0
aF0
aF0
aF-0.25
aF-0.23749999999999999
aF-0.11904761904761904
aF0
aF0
aF0
aF0
aF0
aF-0.20833333333333334
aF0.42499999999999999
aF0
aF0.125
aF0
aF0
aF0
aF0
aF0
aF0
asS'Tattletale'
p14
(lp15
F0
aF0
aF0
aF0
aF0
aF0
aF0
aF0
aF0.13636363636363635
aF0
aF0
aF0
aF0
aF0
aF0
aF0
aF0
aF0
aF0
aF0
aF0
aF0
aF0
aF0
aF0
aF0
aF0
aF0
aF0.32777777777777778
aF0
aF0
aF0.25
aF0.13253968253968254
aF0
aF0
aF0
aF0.41666666666666669
aF0
aF0
aF0
aF0
aF0
aF0
aF0
aF0
aF0
aF0
aF0
aF0
aF0.2175
aF0.59999999999999998
aF-0.30000000000000004
aF0
aF0
aF0
aF0
aF0
aF0
aF0.043749999999999983
aF0
aF-0.0625
aF0
aF0
aF0.5
aF0.39999999999999997
aF0.49285714285714283
aF0.18958333333333333
aF-0.024032533123442223
aF-0.25
aF0
aF0
aF0
aF0
aF0
aF0
aF0
aF0
aF0
aF0
aF0
aF0
aF0
aF0
aF0
aF0
aF0
aF0
aF0
aF0
aF0
aF0
aF0
aF0
aF0
aF0
aF0
aF0
aF0
aF0
aF0
aF0
aF0
aF0
aF0
aF0
aF0
aF0
aF0
aF0
aF0
aF0
aF0
aF0
aF0
aF0
aF0
aF0
aF0
aF0
aF0
aF0
aF0
aF0
aF0
aF0.25
aF-0.074999999999999997
aF-0.098437499999999997
aF0.25003720238095239
aF0
aF0.1027777777777778
aF0
aF0
aF0
aF0
aF0
aF0
aF0
aF0
aF0
aF0.13636363636363635
aF0
aF0
aF0
aF0
aF0
aF0
aF0
aF0
aF0
aF0
aF0
aF0
aF0
aF0
aF0
aF0
aF0
aF0
aF0
aF0.32777777777777778
aF0
aF0
aF0.25
aF0.13253968253968254
aF0
aF0
aF0
aF0
aF0.41666666666666669
aF0
aF0
aF0
aF0
aF0
aF0
aF0
aF0
aF0
aF0
aF0
aF0
aF0
aF0.2175
aF0.59999999999999998
aF-0.30000000000000004
aF0
aF0
aF0
aF0
aF0
aF0
aF0.043749999999999983
aF0
aF-0.0625
aF-0.0625
aF0
aF0
aF0.5
aF0.39999999999999997
aF0.49285714285714283
aF0.18958333333333333
aF-0.024032533123442223
aF-0.25
aF0
aF0
aF0
aF0
aF0
aF0
aF0
aF0
aF0
aF0
aF0
aF0
aF0
aF0
aF0
aF0
aF0
aF0
aF0
aF0
aF0
aF0
aF0
aF0
aF0
aF0
aF0
aF0
aF0
aF0
aF0
aF0
aF0
aF0
aF0
aF0
aF0
aF0
aF0
aF0
aF0
aF0
aF0
aF0
aF0
aF0
aF0
aF0
aF0
aF0
aF0
aF0
aF0
aF0
aF0
aF0
aF0
aF0
aF0
aF0
aF0
aF0.25
aF-0.074999999999999997
aF-0.098437499999999997
aF0.25003720238095239
aF0
aF0.1027777777777778
aF0
aF0
aF0
aF0
asS'Carol'
p16
(lp17
F0
aF0
aF0
aF0.5
aF0
aF0
aF0
aF0
aF0
aF-0.025000000000000001
aF0
aF0
aF0
aF0
aF0
aF0
aF-0.090909090909090912
aF0.13809523809523808
aF0
aF0
aF0.20000000000000001
aF0.016666666666666677
aF0
aF-0.69999999999999984
aF0
aF-0.050000000000000003
aF0
aF0
aF0
aF0
aF0
aF0
aF0.30555555555555552
aF0.17843750000000003
aF0
aF0
aF0
aF0
aF0
aF0
aF0.087499999999999994
aF0
aF0.026884920634920623
aF0
aF-0.057407407407407428
aF0.20000000000000001
aF0.012499999999999997
aF0
aF0
aF0.081666666666666651
aF0.51666666666666661
aF0
aF0.29999999999999999
aF0
aF-0.17500000000000002
aF0
aF0
aF0
aF0
aF0
aF0
aF0
aF0.20000000000000001
aF0
aF0
aF0
aF0.20000000000000001
aF0
aF0.5
aF0
aF0
aF-0.20000000000000001
aF0.27499999999999997
aF0.35999999999999999
aF0
aF0
aF0
aF0.058125000000000003
aF0
aF0
aF0
aF0.44999999999999996
aF0
aF-0.29999999999999999
aF0
aF0
aF0.26666666666666666
aF-0.002491582491582493
aF0
aF-0.15694444444444444
aF-0.20624999999999999
aF0.14999999999999999
aF0
aF0
aF0
aF0
aF0
aF0.049999999999999989
aF0
aF0
aF-0.25555555555555559
aF0.46250000000000002
aF0
aF0.13547619047619047
aF0
aF0
aF0
aF0
aF0
aF0
aF0
aF-0.25
aF0
aF0
aF0
aF0
aF0
aF0
aF0
aF0
aF0
aF0
aF0.15378787878787878
aF0
aF0
aF0
aF0
aF0
aF0
aF0
aF0
aF0
aF0
aF0
aF0.5
aF0
aF0
aF0
aF0
aF0
aF-0.025000000000000001
aF0
aF0
aF0
aF0
aF0
aF0
aF-0.090909090909090912
aF0.13809523809523808
aF0
aF0
aF0.20000000000000001
aF0.016666666666666677
aF0
aF-0.69999999999999984
aF0
aF-0.050000000000000003
aF0
aF0
aF0
aF0
aF0
aF0
aF0.30555555555555552
aF0.17843750000000003
aF0
aF0
aF0
aF0
aF0
aF0
aF0
aF0.087499999999999994
aF0
aF0.026884920634920623
aF0
aF-0.057407407407407428
aF0.20000000000000001
aF0.20000000000000001
aF0.012499999999999997
aF0
aF0
aF0.081666666666666651
aF0.51666666666666661
aF0
aF0.29999999999999999
aF0
aF-0.17500000000000002
aF0
aF0
aF0
aF0
aF0
aF0
aF0
aF0
aF0.20000000000000001
aF0
aF0
aF0
aF0.20000000000000001
aF0
aF0.5
aF0
aF0
aF0
aF-0.20000000000000001
aF0.27499999999999997
aF0.35999999999999999
aF0.35999999999999999
aF0
aF0
aF0
aF0.058125000000000003
aF0
aF0
aF0
aF0.44999999999999996
aF0.44999999999999996
aF0
aF-0.29999999999999999
aF0
aF0
aF0.26666666666666666
aF-0.002491582491582493
aF0
aF-0.15694444444444444
aF-0.15694444444444444
aF-0.20624999999999999
aF0.14999999999999999
aF0
aF0
aF0
aF0
aF0
aF0.049999999999999989
aF0
aF0
aF-0.25555555555555559
aF0.46250000000000002
aF0
aF0.13547619047619047
aF0.13547619047619047
aF0
aF0
aF0
aF0
aF0
aF0
aF0
aF-0.25
aF0
aF0
aF0
aF0
aF0
aF0
aF0
aF0
aF0
aF0
aF0.15378787878787878
aF0.15378787878787878
aF0
aF0
aF0
aF0
aF0
aF0
aF0
aF0
aF0
aF0
aF0
as.