(dp1
S'Sveta'
p2
(lp3
I0
aI0
aI0
aI0
aI0
aI0
aI0
aI0
aI0
aI0
aI0
aI0
aI0
aI0
aI0
aI0
aI0
aI0
aI0
aI0
aI0
aF0.20611111111111111
aF0.31988636363636364
aF0.090707070707070708
aF-0.20000000000000001
aF0.39404761904761904
aF0.15661848072562362
aF-0.14702380952380953
aF-0.022916666666666669
aF0.089999999999999997
aF0.088409090909090896
aF0.61360544217687074
aF-0.024166666666666649
aI0
aF0.013541666666666653
aF0.19868777056277057
aF0.17395833333333335
aF0.22641666666666663
aF0.27000000000000002
aF0.13277777777777777
aF0.099769119769119743
aF0.071111111111111111
aF0.18347505668934239
aF-0.051851851851851864
aI0
aF-0.05185185185185185
aF-0.020833333333333332
aF0.11819444444444442
aF0.070238095238095238
aF0.13722222222222222
aF0.25
aF0.34583333333333338
aF-0.66666666666666663
aF-0.13578869047619049
aF-0.45000000000000001
aF0.018939393939393936
aF-0.097619047619047633
aF0.012500000000000004
aI0
aI0
aF0.046666666666666676
aI0
aF0.31160714285714286
aF0.55000000000000004
aF0.22499999999999998
aF0.13710317460317462
aF-0.018055555555555561
aF0.14999999999999999
aF0.10208333333333332
aF-0.5
aF-0.073931623931623933
aF0.040476190476190492
aF0.18240740740740738
aF0.0069444444444444475
aF0.11148313492063493
aI0
aF0.033333333333333326
aF-0.15625
aI0
aF0.59999999999999998
aF0.41666666666666669
aF0.26666666666666666
aF-0.14427083333333332
aF0.55000000000000004
aI0
aF0.091666666666666646
aF-0.17132936507936508
aF0.21666666666666667
aF-0.05572916666666667
aF0.23461700336700339
aI0
aI0
aF0.75
aF0.072500000000000009
aF0.15000000000000002
aF0.083749999999999977
aF0.069155092592592587
aF0.14659090909090908
aF0.3125
aF0.11111111111111109
aF-0.021768707482993199
aF-0.26666666666666666
aF0.0076003086419752924
aF0.32854166666666662
aI0
aI0
aI0
aI0
aI0
aI0
aI0
aI0
aI0
aI0
aI0
aI0
aI0
aI0
aI0
aI0
aI0
aI0
aI0
aI0
aI0
aF0.20611111111111111
aF0.31988636363636364
aF0.090707070707070708
aF-0.20000000000000001
aF0.39404761904761904
aF0.15661848072562362
aF-0.14702380952380953
aF-0.022916666666666669
aF0.089999999999999997
aF0.088409090909090896
aF0.61360544217687074
aF-0.024166666666666649
aI0
aF0.013541666666666653
aF0.19868777056277057
aF0.17395833333333335
aF0.22641666666666663
aF0.27000000000000002
aF0.13277777777777777
aF0.099769119769119743
aF0.071111111111111111
aF0.18347505668934239
aF-0.051851851851851864
aI0
aF-0.05185185185185185
aF-0.020833333333333332
aF0.11819444444444442
aF0.070238095238095238
aF0.13722222222222222
aF0.25
aF0.34583333333333338
aF-0.66666666666666663
aF-0.13578869047619049
aF-0.45000000000000001
aF0.018939393939393936
aF-0.097619047619047633
aF0.012500000000000004
aI0
aI0
aF0.046666666666666676
aI0
aF0.31160714285714286
aF0.55000000000000004
aF0.22499999999999998
aF0.13710317460317462
aF-0.018055555555555561
aF0.14999999999999999
aF0.10208333333333332
aF-0.5
aF-0.073931623931623933
aF0.040476190476190492
aF0.18240740740740738
aF0.0069444444444444475
aF0.11148313492063493
aI0
aF0.033333333333333326
aF-0.15625
aI0
aF0.59999999999999998
aF0.41666666666666669
aF0.26666666666666666
aF-0.14427083333333332
aF0.55000000000000004
aI0
aF0.091666666666666646
aF-0.17132936507936508
aF0.21666666666666667
aF-0.05572916666666667
aF0.23461700336700339
aI0
aI0
aF0.75
aF0.072500000000000009
aF0.15000000000000002
aF0.083749999999999977
aF0.069155092592592587
aF0.14659090909090908
aF0.3125
aF0.11111111111111109
aF-0.021768707482993199
aF-0.26666666666666666
aF0.0076003086419752924
aF0.32854166666666662
asS'Ashley'
p4
(lp5
I0
aI0
aI0
aI0
aI0
aI0
aI0
aI0
aI0
aI0
aI0
aI0
aI0
aI0
aI0
aI0
aI0
aI0
aI0
aI0
aI0
aF0.052500000000000005
aF-0.025520833333333326
aF0.33148148148148149
aF-0.19791666666666669
aF0.31666666666666665
aF-0.10525793650793651
aF0.15281084656084654
aF-0.13809523809523808
aI0
aF0.055324074074074081
aF0.13459595959595957
aI0
aF-0.04040123456790122
aF0.0098958333333333259
aF0.15867346938775512
aF0.2902777777777778
aF-0.14166666666666661
aF-0.10138888888888886
aI0
aF0.125
aI0
aF0.024999999999999994
aF0.5
aI0
aI0
aI0
aI0
aI0
aI0
aI0
aI0
aF0.032307692307692315
aF-0.40000000000000002
aF0.081250000000000044
aF-0.066666666666666666
aF0.12197802197802199
aI0
aI0
aF0.20000000000000001
aF0.25538624338624338
aI0
aF-0.3888888888888889
aI0
aI0
aF0.59999999999999998
aI0
aF0.32142857142857145
aF0.2857142857142857
aI0
aF0.41215277777777776
aF0.13665674603174602
aI0
aF-0.050000000000000003
aF0.16767676767676767
aI0
aF-0.14861111111111111
aF0.049206349206349205
aI0
aF0.10925925925925928
aF0.5
aF-0.12291666666666665
aF-0.50000000000000011
aF0.125
aI0
aI0
aI0
aI0
aI0
aF0.33333333333333337
aI0
aF0.14999999999999999
aI0
aF0.3965544871794871
aF0.18236111111111111
aF-0.050000000000000003
aF0.37
aF0.3833333333333333
aF0.30000000000000004
aF0.17999999999999994
aF-0.096874999999999989
aF-0.037499999999999999
aF-0.44166666666666671
aF0.31488095238095243
aI0
aI0
aI0
aI0
aI0
aI0
aI0
aI0
aI0
aI0
aI0
aI0
aI0
aI0
aI0
aI0
aI0
aI0
aI0
aI0
aI0
aF0.052500000000000005
aF-0.025520833333333326
aF0.33148148148148149
aF-0.19791666666666669
aF0.31666666666666665
aF-0.10525793650793651
aF0.15281084656084654
aF-0.13809523809523808
aI0
aF0.055324074074074081
aF0.13459595959595957
aI0
aF-0.04040123456790122
aF0.0098958333333333259
aF0.15867346938775512
aF0.2902777777777778
aF-0.14166666666666661
aF-0.10138888888888886
aI0
aF0.125
aI0
aF0.024999999999999994
aF0.5
aI0
aI0
aI0
aI0
aI0
aI0
aI0
aI0
aF0.032307692307692315
aF-0.40000000000000002
aF0.081250000000000044
aF-0.066666666666666666
aF0.12197802197802199
aI0
aI0
aF0.20000000000000001
aF0.25538624338624338
aI0
aF-0.3888888888888889
aI0
aI0
aF0.59999999999999998
aI0
aF0.32142857142857145
aF0.2857142857142857
aI0
aF0.41215277777777776
aF0.13665674603174602
aI0
aF-0.050000000000000003
aF0.16767676767676767
aI0
aF-0.14861111111111111
aF0.049206349206349205
aI0
aF0.10925925925925928
aF0.5
aF-0.12291666666666665
aF-0.50000000000000011
aF0.125
aI0
aI0
aI0
aI0
aI0
aF0.33333333333333337
aI0
aF0.14999999999999999
aI0
aF0.3965544871794871
aF0.18236111111111111
aF-0.050000000000000003
aF0.37
aF0.3833333333333333
aF0.30000000000000004
aF0.17999999999999994
aF-0.096874999999999989
aF-0.037499999999999999
aF-0.44166666666666671
aF0.31488095238095243
asS'Rain'
p6
(lp7
I0
aI0
aI0
aI0
aI0
aI0
aI0
aI0
aI0
aI0
aI0
aI0
aI0
aI0
aI0
aI0
aI0
aI0
aI0
aI0
aI0
aI0
aF0.10000000000000001
aI0
aI0
aI0
aI0
aI0
aI0
aI0
aI0
aI0
aI0
aI0
aI0
aI0
aI0
aI0
aI0
aI0
aI0
aI0
aI0
aI0
aI0
aI0
aI0
aI0
aI0
aI0
aI0
aI0
aI0
aI0
aI0
aI0
aI0
aI0
aI0
aF0.29999999999999999
aI0
aI0
aI0
aI0
aI0
aI0
aI0
aI0
aI0
aI0
aI0
aI0
aI0
aF-0.5
aI0
aI0
aI0
aI0
aI0
aI0
aI0
aI0
aF0.16111111111111112
aI0
aI0
aI0
aI0
aI0
aI0
aI0
aF-0.15555555555555559
aI0
aI0
aI0
aF0.31055555555555553
aI0
aF0.17777777777777778
aI0
aI0
aI0
aF0.31666666666666665
aI0
aI0
aI0
aI0
aI0
aI0
aI0
aI0
aI0
aI0
aI0
aI0
aI0
aI0
aI0
aI0
aI0
aI0
aI0
aI0
aI0
aI0
aI0
aI0
aI0
aF0.10000000000000001
aI0
aI0
aI0
aI0
aI0
aI0
aI0
aI0
aI0
aI0
aI0
aI0
aI0
aI0
aI0
aI0
aI0
aI0
aI0
aI0
aI0
aI0
aI0
aI0
aI0
aI0
aI0
aI0
aI0
aI0
aI0
aI0
aI0
aI0
aI0
aI0
aF0.29999999999999999
aI0
aI0
aI0
aI0
aI0
aI0
aI0
aI0
aI0
aI0
aI0
aI0
aI0
aF-0.5
aI0
aI0
aI0
aI0
aI0
aI0
aI0
aI0
aF0.16111111111111112
aI0
aI0
aI0
aI0
aI0
aI0
aI0
aF-0.15555555555555559
aI0
aI0
aI0
aF0.31055555555555553
aI0
aF0.17777777777777778
aI0
aI0
aI0
aF0.31666666666666665
aI0
aI0
aI0
asS'Amy'
p8
(lp9
I0
aI0
aI0
aI0
aI0
aI0
aI0
aI0
aI0
aI0
aI0
aI0
aI0
aI0
aI0
aI0
aF0.5
aI0
aI0
aI0
aI0
aI0
aI0
aI0
aI0
aI0
aI0
aI0
aI0
aI0
aI0
aI0
aI0
aI0
aI0
aI0
aI0
aI0
aI0
aI0
aI0
aI0
aI0
aI0
aI0
aI0
aI0
aI0
aI0
aI0
aI0
aI0
aI0
aI0
aI0
aI0
aI0
aF0.5
aI0
aI0
aI0
aI0
aI0
aI0
aI0
aI0
aI0
aF0.11666666666666665
aI0
aI0
aI0
aI0
aI0
aI0
aI0
aI0
aI0
aI0
aI0
aI0
aI0
aF0.23333333333333334
aF0.125
aI0
aI0
aI0
aF-0.022222222222222216
aF0.051562499999999983
aI0
aI0
aF0.43333333333333335
aI0
aI0
aI0
aF0.018809523809523814
aF-0.10000000000000001
aI0
aI0
aI0
aI0
aI0
aI0
aI0
aI0
aI0
aI0
aI0
aI0
aI0
aI0
aI0
aI0
aI0
aI0
aI0
aI0
aI0
aI0
aI0
aI0
aF0.5
aI0
aI0
aI0
aI0
aI0
aI0
aI0
aI0
aI0
aI0
aI0
aI0
aI0
aI0
aI0
aI0
aI0
aI0
aI0
aI0
aI0
aI0
aI0
aI0
aI0
aI0
aI0
aI0
aI0
aI0
aI0
aI0
aI0
aI0
aI0
aI0
aI0
aI0
aI0
aI0
aF0.5
aI0
aI0
aI0
aI0
aI0
aI0
aI0
aI0
aI0
aF0.11666666666666665
aI0
aI0
aI0
aI0
aI0
aI0
aI0
aI0
aI0
aI0
aI0
aI0
aI0
aF0.23333333333333334
aF0.125
aI0
aI0
aI0
aF-0.022222222222222216
aF0.051562499999999983
aI0
aI0
aF0.43333333333333335
aI0
aI0
aI0
aF0.018809523809523814
aF-0.10000000000000001
aI0
aI0
aI0
aI0
aI0
aI0
aI0
aI0
asS'Kenzie'
p10
(lp11
I0
aI0
aI0
aI0
aI0
aI0
aI0
aI0
aI0
aI0
aI0
aI0
aI0
aI0
aI0
aI0
aI0
aI0
aI0
aI0
aI0
aF0.12407407407407407
aF0.18238095238095234
aF0.17753472222222222
aF0.050000000000000003
aF0.1610651974288338
aF0.18313271604938269
aF0.15462962962962959
aF0.12500000000000003
aF-0.09345238095238094
aF0.040972222222222222
aF0.2351294903926483
aF0.34589285714285717
aF-0.10000000000000001
aF0.15246913580246912
aF-0.0041666666666666683
aF0.022718253968253957
aF-0.044999999999999998
aF0.099471380471380461
aF-0.10000000000000001
aF-0.24999999999999992
aF-0.089285714285714288
aF0.075925925925925938
aF0.015694444444444441
aI0
aI0
aF0.10000000000000001
aI0
aI0
aI0
aI0
aF-0.15476190476190474
aF0.32500000000000001
aF0.19999999999999998
aF0.38500000000000001
aF0.085069444444444448
aF0.63541666666666674
aF0.10138888888888889
aF0.31392857142857145
aI0
aF0.3659722222222222
aF0.16944444444444443
aF0.21984126984126981
aF0.00052083333333332856
aF0.037499999999999992
aF0.24496527777777777
aF-0.125
aF0.1306122448979592
aF0.056851851851851855
aF0.30918367346938774
aF0.43727272727272731
aF0.24470238095238095
aF0.10000000000000001
aI0
aF0.28307291666666667
aF0.26984126984126983
aF0.15734126984126981
aF-0.044999999999999998
aF-0.24642857142857141
aF0.46249999999999997
aI0
aF0.033333333333333326
aF-0.041666666666666657
aF-0.025000000000000001
aI0
aF0.025000000000000012
aF0.068154761904761912
aF0.10000000000000001
aF-0.17499999999999993
aI0
aF0.3666666666666667
aF0.5
aF0.19666666666666668
aF0.15317460317460316
aF0.30000000000000004
aF0.13416666666666668
aF0.09791666666666668
aF0.14240740740740743
aF0.062500000000000028
aI0
aF0.17499999999999996
aF-0.02916666666666666
aI0
aF0.20833333333333334
aI0
aI0
aI0
aI0
aI0
aI0
aI0
aI0
aI0
aI0
aI0
aI0
aI0
aI0
aI0
aI0
aI0
aI0
aI0
aI0
aI0
aF0.12407407407407407
aF0.18238095238095234
aF0.17753472222222222
aF0.050000000000000003
aF0.1610651974288338
aF0.18313271604938269
aF0.15462962962962959
aF0.12500000000000003
aF-0.09345238095238094
aF0.040972222222222222
aF0.2351294903926483
aF0.34589285714285717
aF-0.10000000000000001
aF0.15246913580246912
aF-0.0041666666666666683
aF0.022718253968253957
aF-0.044999999999999998
aF0.099471380471380461
aF-0.10000000000000001
aF-0.24999999999999992
aF-0.089285714285714288
aF0.075925925925925938
aF0.015694444444444441
aI0
aI0
aF0.10000000000000001
aI0
aI0
aI0
aI0
aF-0.15476190476190474
aF0.32500000000000001
aF0.19999999999999998
aF0.38500000000000001
aF0.085069444444444448
aF0.63541666666666674
aF0.10138888888888889
aF0.31392857142857145
aI0
aF0.3659722222222222
aF0.16944444444444443
aF0.21984126984126981
aF0.00052083333333332856
aF0.037499999999999992
aF0.24496527777777777
aF-0.125
aF0.1306122448979592
aF0.056851851851851855
aF0.30918367346938774
aF0.43727272727272731
aF0.24470238095238095
aF0.10000000000000001
aI0
aF0.28307291666666667
aF0.26984126984126983
aF0.15734126984126981
aF-0.044999999999999998
aF-0.24642857142857141
aF0.46249999999999997
aI0
aF0.033333333333333326
aF-0.041666666666666657
aF-0.025000000000000001
aI0
aF0.025000000000000012
aF0.068154761904761912
aF0.10000000000000001
aF-0.17499999999999993
aI0
aF0.3666666666666667
aF0.5
aF0.19666666666666668
aF0.15317460317460316
aF0.30000000000000004
aF0.13416666666666668
aF0.09791666666666668
aF0.14240740740740743
aF0.062500000000000028
aI0
aF0.17499999999999996
aF-0.02916666666666666
aI0
aF0.20833333333333334
asS'Chris'
p12
(lp13
I0
aI0
aI0
aI0
aI0
aI0
aI0
aI0
aI0
aI0
aI0
aI0
aI0
aI0
aI0
aI0
aI0
aI0
aI0
aI0
aI0
aF0.18174603174603177
aF0.071123321123321093
aI0
aI0
aF0.15297619047619046
aF0.05288600288600287
aF0.12023809523809523
aF-0.15555555555555556
aF0.5
aF0.14333333333333334
aF0.13544973544973543
aF-0.043650793650793655
aF0.20833333333333331
aI0
aF-0.084722222222222213
aF-0.40729166666666666
aF0.037499999999999978
aF-0.0047619047619047632
aF0.11334134615384615
aF0.125
aF-0.050000000000000003
aF0.22395833333333337
aF0.25
aI0
aI0
aF-0.17344444444444446
aF-0.0060185185185185107
aF0.10000000000000001
aI0
aF0.35380952380952374
aI0
aI0
aF0.073472222222222217
aF0.070000000000000021
aF-0.053333333333333344
aF0.18055555555555555
aF0.375
aF0.38148148148148148
aI0
aF0.17261904761904764
aI0
aF0.27641025641025635
aF0.0043650793650793539
aF-0.34259259259259256
aF0.029735819735819714
aI0
aI0
aI0
aI0
aF-0.5
aF-0.0055555555555555358
aI0
aF0.085185185185185183
aF0.031458333333333345
aI0
aF0.065873015873015875
aF-0.050000000000000017
aI0
aI0
aF0.20000000000000001
aF0.10000000000000005
aF0.10000000000000001
aI0
aI0
aI0
aI0
aI0
aI0
aI0
aI0
aI0
aI0
aI0
aI0
aI0
aI0
aF-0.20833333333333334
aF0.42499999999999999
aI0
aF0.125
aI0
aI0
aI0
aI0
aI0
aI0
aI0
aI0
aI0
aI0
aI0
aI0
aI0
aI0
aI0
aI0
aI0
aI0
aI0
aI0
aI0
aI0
aI0
aI0
aF0.18174603174603177
aF0.071123321123321093
aI0
aI0
aF0.15297619047619046
aF0.05288600288600287
aF0.12023809523809523
aF-0.15555555555555556
aF0.5
aF0.14333333333333334
aF0.13544973544973543
aF-0.043650793650793655
aF0.20833333333333331
aI0
aF-0.084722222222222213
aF-0.40729166666666666
aF0.037499999999999978
aF-0.0047619047619047632
aF0.11334134615384615
aF0.125
aF-0.050000000000000003
aF0.22395833333333337
aF0.25
aI0
aI0
aF-0.17344444444444446
aF-0.0060185185185185107
aF0.10000000000000001
aI0
aF0.35380952380952374
aI0
aI0
aF0.073472222222222217
aF0.070000000000000021
aF-0.053333333333333344
aF0.18055555555555555
aF0.375
aF0.38148148148148148
aI0
aF0.17261904761904764
aI0
aF0.27641025641025635
aF0.0043650793650793539
aF-0.34259259259259256
aF0.029735819735819714
aI0
aI0
aI0
aI0
aF-0.5
aF-0.0055555555555555358
aI0
aF0.085185185185185183
aF0.031458333333333345
aI0
aF0.065873015873015875
aF-0.050000000000000017
aI0
aI0
aF0.20000000000000001
aF0.10000000000000005
aF0.10000000000000001
aI0
aI0
aI0
aI0
aI0
aI0
aI0
aI0
aI0
aI0
aI0
aI0
aI0
aI0
aF-0.20833333333333334
aF0.42499999999999999
aI0
aF0.125
aI0
aI0
aI0
asS'Tattletale'
p14
(lp15
I0
aI0
aI0
aI0
aI0
aI0
aI0
aI0
aI0
aI0
aI0
aI0
aI0
aI0
aI0
aI0
aI0
aI0
aI0
aI0
aI0
aI0
aI0
aI0
aI0
aI0
aI0
aF0.25
aI0
aI0
aI0
aF0.41666666666666669
aI0
aI0
aI0
aI0
aI0
aI0
aI0
aI0
aI0
aI0
aI0
aI0
aI0
aI0
aI0
aI0
aI0
aF-0.0625
aI0
aI0
aI0
aF0.39999999999999997
aI0
aI0
aF0.25
aF-0.25
aI0
aI0
aI0
aI0
aI0
aI0
aI0
aI0
aI0
aI0
aI0
aI0
aI0
aI0
aI0
aI0
aI0
aI0
aI0
aI0
aI0
aI0
aI0
aI0
aI0
aI0
aI0
aI0
aI0
aI0
aI0
aI0
aI0
aI0
aI0
aI0
aI0
aI0
aI0
aI0
aF-0.21249999999999999
aI0
aF-0.15625
aI0
aF0.1027777777777778
aI0
aI0
aI0
aI0
aI0
aI0
aI0
aI0
aI0
aI0
aI0
aI0
aI0
aI0
aI0
aI0
aI0
aI0
aI0
aI0
aI0
aI0
aI0
aI0
aI0
aI0
aI0
aI0
aF0.25
aI0
aI0
aI0
aF0.41666666666666669
aI0
aI0
aI0
aI0
aI0
aI0
aI0
aI0
aI0
aI0
aI0
aI0
aI0
aI0
aI0
aI0
aI0
aF-0.0625
aI0
aI0
aI0
aF0.39999999999999997
aI0
aI0
aF0.25
aF-0.25
aI0
aI0
aI0
aI0
aI0
aI0
aI0
aI0
aI0
aI0
aI0
aI0
aI0
aI0
aI0
aI0
aI0
aI0
aI0
aI0
aI0
aI0
aI0
aI0
aI0
aI0
aI0
aI0
aI0
aI0
aI0
aI0
aI0
aI0
aI0
aI0
aI0
aI0
aI0
aI0
aF-0.21249999999999999
aI0
aF-0.15625
aI0
aF0.1027777777777778
aI0
as.