(dp1
S'Sveta'
p2
(lp3
F0
aF0
aF0
aF0
aF0
aF0
aF0
aF0
aF0
aF0
aF0
aF0
aF0
aF0
aF0
aF0
aF0
aF0
aF0
aF0
aF0
aF0
aF0
aF0
aF3.0916666666666668
aF3.4886363636363633
aF1.3606060606060606
aF0
aF-0.20000000000000001
aF2.7583333333333333
aF2.1926587301587306
aF-0.63214285714285712
aF0.11249999999999993
aF0.44999999999999996
aF0
aF1.2124999999999999
aF3.5452380952380951
aF-0.12083333333333324
aF0
aF0
aF0.20833333333333323
aF-0.3125
aF2.1855654761904764
aF1.3916666666666668
aF-1.0249999999999999
aF1.1320833333333331
aF1.3500000000000001
aF0.66388888888888886
aF1.0974603174603172
aF0.35555555555555557
aF0.5535714285714286
aF2.4686507936507933
aF-0.051851851851851864
aF0
aF-0.15555555555555556
aF0.47499999999999998
aF0.59097222222222212
aF0.4916666666666667
aF0
aF0
aF0.68611111111111112
aF0.25
aF2.0750000000000002
aF-0.66666666666666663
aF-0.8147321428571429
aF-0.45000000000000001
aF0.0083333333333333592
aF-0.68928571428571428
aF0.050000000000000017
aF0
aF0
aF0.23333333333333336
aF0
aF0
aF0.59999999999999998
aF0
aF0.69999999999999996
aF0
aF0
aF0
aF0
aF1.2464285714285714
aF0.55000000000000004
aF0.44999999999999996
aF0.82261904761904769
aF-0.16250000000000006
aF0.14999999999999999
aF0
aF0
aF0.40833333333333327
aF-0.5
aF-0.22179487179487181
aF0.28333333333333344
aF1.0944444444444443
aF0.041666666666666685
aF0.89186507936507942
aF0
aF0.1333333333333333
aF-0.3125
aF0
aF0.59999999999999998
aF0.10568181818181818
aF0
aF1.25
aF2.1166666666666663
aF-0.57708333333333328
aF1.1000000000000001
aF0
aF0.36666666666666659
aF-0.68531746031746033
aF0
aF1.3
aF-0.44583333333333336
aF0
aF0.8077020202020202
aF0
aF0
aF1.5
aF0.29000000000000004
aF0.60000000000000009
aF0
aF0
aF1.3374999999999999
aF1.1064814814814814
aF0.58636363636363631
aF0.625
aF0.77777777777777768
aF-0.15238095238095239
aF-0.26666666666666666
aF0.091203703703703509
aF1.3141666666666665
aF0
aF0
aF0
aF0
aF0
aF0
aF0
aF0
aF0
aF0
aF0
aF0
aF0
aF0
aF0
aF0
aF0
aF0
aF0
aF0
aF0
aF0
aF0
aF0
aF3.0916666666666668
aF3.4886363636363633
aF1.3606060606060606
aF0
aF-0.20000000000000001
aF2.7583333333333333
aF2.1926587301587306
aF-0.63214285714285712
aF0.11249999999999993
aF0.44999999999999996
aF0
aF1.2124999999999999
aF1.2124999999999999
aF3.5452380952380951
aF-0.12083333333333324
aF0
aF0
aF0.20833333333333323
aF-0.3125
aF2.1855654761904764
aF1.3916666666666668
aF-1.0249999999999999
aF1.1320833333333331
aF1.1320833333333331
aF1.3500000000000001
aF0.66388888888888886
aF1.0974603174603172
aF0.35555555555555557
aF0.5535714285714286
aF2.4686507936507933
aF-0.051851851851851864
aF0
aF-0.15555555555555556
aF0.47499999999999998
aF0.59097222222222212
aF0.4916666666666667
aF0
aF0
aF0.68611111111111112
aF0.68611111111111112
aF0.25
aF2.0750000000000002
aF-0.66666666666666663
aF-0.8147321428571429
aF-0.45000000000000001
aF0.0083333333333333592
aF-0.68928571428571428
aF0.050000000000000017
aF0
aF0
aF0
aF0.23333333333333336
aF0
aF0
aF0
aF0.59999999999999998
aF0
aF0.69999999999999996
aF0
aF0
aF0
aF0
aF1.2464285714285714
aF1.2464285714285714
aF0.55000000000000004
aF0.44999999999999996
aF0.82261904761904769
aF-0.16250000000000006
aF0.14999999999999999
aF0
aF0
aF0.40833333333333327
aF0.40833333333333327
aF-0.5
aF-0.22179487179487181
aF0.28333333333333344
aF1.0944444444444443
aF0.041666666666666685
aF0.89186507936507942
aF0
aF0.1333333333333333
aF-0.3125
aF0
aF0.59999999999999998
aF0.10568181818181818
aF0
aF1.25
aF1.25
aF2.1166666666666663
aF-0.57708333333333328
aF1.1000000000000001
aF0
aF0.36666666666666659
aF-0.68531746031746033
aF0
aF1.3
aF-0.44583333333333336
aF0
aF0.8077020202020202
aF0
aF0
aF1.5
aF0.29000000000000004
aF0.60000000000000009
aF0
aF0
aF1.3374999999999999
aF1.3374999999999999
aF1.1064814814814814
aF0.58636363636363631
aF0.625
aF0.77777777777777768
aF-0.15238095238095239
aF-0.26666666666666666
aF0.091203703703703509
aF1.3141666666666665
aF0
aF0
aF0
asS'Ashley'
p4
(lp5
F0
aF0
aF0
aF0
aF0
aF0
aF0
aF0
aF0
aF0
aF0
aF0
aF0
aF0
aF0
aF0
aF0
aF0
aF0
aF0
aF0
aF0
aF0
aF0
aF0.27999999999999997
aF2.7755575615628914e-17
aF0.99444444444444446
aF0
aF-0.39583333333333337
aF0.6333333333333333
aF-1.4736111111111112
aF0.99464285714285716
aF-0.13809523809523808
aF0
aF0
aF0.40555555555555556
aF1.4805555555555552
aF0.29999999999999999
aF0
aF-0.561574074074074
aF0.24212962962962953
aF0
aF1.1107142857142858
aF1.1611111111111112
aF0.5357142857142857
aF-0.42499999999999982
aF-0.72499999999999987
aF0.90000000000000002
aF0
aF-0.20000000000000001
aF0
aF0.049999999999999989
aF0.5
aF0
aF-1.5916666666666668
aF0.79166666666666674
aF1.7080555555555554
aF0
aF0
aF0
aF0
aF0
aF0
aF0.39487179487179491
aF-0.40000000000000002
aF-0.42499999999999993
aF-0.26666666666666666
aF0.48791208791208796
aF0
aF0
aF0.20000000000000001
aF2.5538624338624336
aF0
aF-0.79761904761904756
aF2.2263888888888888
aF-1.3376984126984131
aF4.6508207070707073
aF-1.6472222222222219
aF-0.73990740740740735
aF1.0507275132275131
aF-0.52499999999999991
aF-0.3888888888888889
aF0
aF0
aF0.59999999999999998
aF0
aF2.25
aF0.18750000000000006
aF0
aF0.2857142857142857
aF0
aF1.9729166666666664
aF1.6398809523809523
aF0
aF-0.10000000000000001
aF0.47803030303030303
aF0
aF-0.89166666666666661
aF0.54444444444444451
aF0.59999999999999998
aF-0.28055555555555556
aF0.29999999999999999
aF0
aF0.5
aF-0.49166666666666659
aF-0.3000000000000001
aF0.125
aF0
aF0
aF0.25
aF0
aF0.068750000000000006
aF0
aF0
aF0.94091880341880341
aF0
aF-0.037500000000000006
aF2.3065476190476191
aF2.726549145299145
aF0.7877777777777778
aF-0.41666666666666663
aF0
aF-0.050000000000000003
aF0.43571428571428583
aF0.70416666666666661
aF0.60000000000000009
aF0.35999999999999988
aF-0.38749999999999996
aF-0.037499999999999999
aF-1.3250000000000002
aF2.5190476190476194
aF0
aF0
aF0
aF0
aF0
aF0
aF0
aF0
aF0
aF0
aF0
aF0
aF0
aF0
aF0
aF0
aF0
aF0
aF0
aF0
aF0
aF0
aF0
aF0
aF0.27999999999999997
aF2.7755575615628914e-17
aF0.99444444444444446
aF0
aF-0.39583333333333337
aF0.6333333333333333
aF-1.4736111111111112
aF0.99464285714285716
aF-0.13809523809523808
aF0
aF0
aF0.40555555555555556
aF0.40555555555555556
aF1.4805555555555552
aF0.29999999999999999
aF0
aF-0.561574074074074
aF0.24212962962962953
aF0
aF1.1107142857142858
aF1.1611111111111112
aF0.5357142857142857
aF-0.42499999999999982
aF-0.42499999999999982
aF-0.72499999999999987
aF0.90000000000000002
aF0
aF-0.20000000000000001
aF0
aF0.049999999999999989
aF0.5
aF0
aF-1.5916666666666668
aF0.79166666666666674
aF1.7080555555555554
aF0
aF0
aF0
aF0
aF0
aF0
aF0
aF0.39487179487179491
aF-0.40000000000000002
aF-0.42499999999999993
aF-0.26666666666666666
aF0.48791208791208796
aF0
aF0
aF0
aF0.20000000000000001
aF2.5538624338624336
aF0
aF-0.79761904761904756
aF-0.79761904761904756
aF2.2263888888888888
aF-1.3376984126984131
aF4.6508207070707073
aF-1.6472222222222219
aF-0.73990740740740735
aF1.0507275132275131
aF-0.52499999999999991
aF-0.3888888888888889
aF-0.3888888888888889
aF0
aF0
aF0.59999999999999998
aF0
aF2.25
aF0.18750000000000006
aF0
aF0.2857142857142857
aF0.2857142857142857
aF0
aF1.9729166666666664
aF1.6398809523809523
aF0
aF-0.10000000000000001
aF0.47803030303030303
aF0
aF-0.89166666666666661
aF0.54444444444444451
aF0.59999999999999998
aF-0.28055555555555556
aF0.29999999999999999
aF0
aF0.5
aF0.5
aF-0.49166666666666659
aF-0.3000000000000001
aF0.125
aF0
aF0
aF0.25
aF0
aF0.068750000000000006
aF0
aF0
aF0.94091880341880341
aF0
aF-0.037500000000000006
aF2.3065476190476191
aF2.726549145299145
aF0.7877777777777778
aF-0.41666666666666663
aF0
aF-0.050000000000000003
aF-0.050000000000000003
aF0.43571428571428583
aF0.70416666666666661
aF0.60000000000000009
aF0.35999999999999988
aF-0.38749999999999996
aF-0.037499999999999999
aF-1.3250000000000002
aF2.5190476190476194
aF0
aF0
aF0
asS'Rain'
p6
(lp7
F0
aF0
aF0
aF0
aF0
aF0.34999999999999998
aF0
aF0
aF0
aF0
aF0
aF0
aF0
aF0
aF0
aF0
aF0
aF0
aF0
aF0
aF0
aF0
aF0
aF0
aF0.5
aF2.552083333333333
aF1.9849999999999997
aF0
aF0
aF0
aF0.60555555555555551
aF0.27500000000000013
aF0.84513888888888899
aF0
aF0
aF-0.375
aF-0.077777777777777793
aF1.2208333333333334
aF0.53888888888888853
aF0.051388888888888887
aF0
aF2.828551587301587
aF0.049999999999999989
aF-0.65277777777777779
aF-2.4035714285714285
aF-0.26111111111111102
aF-0.69999999999999996
aF0.5
aF0.030769230769230771
aF-0.26601103988603991
aF-1.4625000000000001
aF0
aF0
aF0
aF0
aF0
aF0
aF0.678968253968254
aF0
aF0.40000000000000002
aF1.2857142857142856
aF-0.033333333333333354
aF-0.16666666666666666
aF0.20000000000000001
aF0.29999999999999999
aF0.12500000000000006
aF-0.045238095238095161
aF0.53874458874458853
aF0
aF-0.20277777777777778
aF3.0383838383838384
aF0
aF0
aF0
aF-0.14583333333333334
aF0
aF-0.5
aF0
aF0
aF0
aF0
aF0
aF0
aF0
aF0
aF0
aF2.0494588744588742
aF0
aF0
aF0
aF0
aF2.7000000000000002
aF2.1857142857142859
aF0
aF-1.1041666666666667
aF1.1000000000000001
aF-1
aF0.40000000000000002
aF1.0857142857142856
aF0
aF0.5
aF0
aF-0.15555555555555559
aF0.5
aF0.085714285714285743
aF-0.27460317460317457
aF0.43571428571428572
aF0
aF0.5
aF-0.1875
aF0
aF-0.90000000000000002
aF0.25
aF0
aF0.86492063492063487
aF0.19444444444444439
aF1.6607142857142856
aF0.49398148148148147
aF-0.41666666666666663
aF-1.0672222222222221
aF0
aF0
aF-0.15555555555555559
aF0.67063492063492058
aF0.25
aF-0.6958333333333333
aF1.1633333333333333
aF0.81083333333333329
aF0.11944444444444438
aF0.7676587301587301
aF1.5
aF0
aF0
aF0
aF0
aF0
aF0.34999999999999998
aF0
aF0
aF0
aF0
aF0
aF0
aF0
aF0
aF0
aF0
aF0
aF0
aF0
aF0
aF0
aF0
aF0
aF0
aF0.5
aF2.552083333333333
aF1.9849999999999997
aF0
aF0
aF0
aF0.60555555555555551
aF0.27500000000000013
aF0.84513888888888899
aF0
aF0
aF-0.375
aF-0.375
aF-0.077777777777777793
aF1.2208333333333334
aF0.53888888888888853
aF0.051388888888888887
aF0
aF2.828551587301587
aF0.049999999999999989
aF-0.65277777777777779
aF-2.4035714285714285
aF-0.26111111111111102
aF-0.26111111111111102
aF-0.69999999999999996
aF0.5
aF0.030769230769230771
aF-0.26601103988603991
aF-1.4625000000000001
aF0
aF0
aF0
aF0
aF0
aF0
aF0.678968253968254
aF0
aF0.40000000000000002
aF1.2857142857142856
aF1.2857142857142856
aF-0.033333333333333354
aF-0.16666666666666666
aF0.20000000000000001
aF0.29999999999999999
aF0.12500000000000006
aF-0.045238095238095161
aF0.53874458874458853
aF0
aF-0.20277777777777778
aF-0.20277777777777778
aF3.0383838383838384
aF0
aF0
aF0
aF0
aF-0.14583333333333334
aF0
aF-0.5
aF0
aF0
aF0
aF0
aF0
aF0
aF0
aF0
aF0
aF0
aF2.0494588744588742
aF0
aF0
aF0
aF0
aF0
aF2.7000000000000002
aF2.1857142857142859
aF0
aF-1.1041666666666667
aF1.1000000000000001
aF-1
aF0.40000000000000002
aF1.0857142857142856
aF0
aF0.5
aF0
aF-0.15555555555555559
aF0.5
aF0.5
aF0.085714285714285743
aF-0.27460317460317457
aF0.43571428571428572
aF0
aF0.5
aF-0.1875
aF0
aF-0.90000000000000002
aF0.25
aF0
aF0.86492063492063487
aF0.19444444444444439
aF1.6607142857142856
aF0.49398148148148147
aF-0.41666666666666663
aF-1.0672222222222221
aF0
aF0
aF-0.15555555555555559
aF-0.15555555555555559
aF0.67063492063492058
aF0.25
aF-0.6958333333333333
aF1.1633333333333333
aF0.81083333333333329
aF0.11944444444444438
aF0.7676587301587301
aF1.5
aF0
aF0
aF0
asS'Amy'
p8
(lp9
F0
aF0
aF0
aF0
aF0
aF0
aF0
aF0
aF0
aF0
aF0
aF0
aF0
aF0
aF0
aF0
aF0
aF0
aF1
aF0
aF0
aF0
aF0
aF0
aF0
aF0
aF0
aF0
aF0.38571428571428568
aF0
aF0
aF0
aF0
aF0
aF0
aF0
aF0
aF0
aF0
aF0
aF0
aF0
aF0
aF0.20000000000000001
aF0
aF0
aF0
aF0
aF0
aF0
aF0
aF0
aF0
aF0
aF0
aF0
aF0
aF0
aF0
aF-0.10000000000000001
aF0
aF0
aF0
aF0
aF0
aF0
aF0
aF0
aF0.5
aF0
aF0
aF0
aF0
aF0
aF0
aF0
aF0
aF0
aF0
aF0
aF0
aF0
aF-0.14999999999999999
aF-0.29166666666666669
aF0
aF0
aF0.11666666666666665
aF0
aF0
aF0.40000000000000002
aF0
aF0
aF0
aF0
aF0
aF0
aF0
aF0
aF0
aF0
aF0.75
aF0
aF0
aF-0.375
aF1.2666666666666668
aF0.25
aF0
aF0
aF0
aF-0.022222222222222216
aF0
aF0.20624999999999993
aF0
aF0
aF0
aF0.43333333333333335
aF0
aF0
aF0
aF0.018809523809523814
aF0
aF0
aF0.40000000000000002
aF1.05
aF0
aF0
aF0
aF0
aF0
aF0
aF0
aF0
aF0
aF0
aF0
aF0
aF0
aF0
aF0
aF0
aF0
aF0
aF0
aF0
aF0
aF0
aF0
aF0
aF0
aF1
aF0
aF0
aF0
aF0
aF0
aF0
aF0
aF0
aF0
aF0.38571428571428568
aF0
aF0
aF0
aF0
aF0
aF0
aF0
aF0
aF0
aF0
aF0
aF0
aF0
aF0
aF0
aF0.20000000000000001
aF0
aF0
aF0
aF0
aF0
aF0
aF0
aF0
aF0
aF0
aF0
aF0
aF0
aF0
aF0
aF0
aF-0.10000000000000001
aF0
aF0
aF0
aF0
aF0
aF0
aF0
aF0
aF0
aF0.5
aF0
aF0
aF0
aF0
aF0
aF0
aF0
aF0
aF0
aF0
aF0
aF0
aF0
aF0
aF0
aF0
aF-0.14999999999999999
aF-0.29166666666666669
aF0
aF0
aF0.11666666666666665
aF0
aF0
aF0.40000000000000002
aF0.40000000000000002
aF0
aF0
aF0
aF0
aF0
aF0
aF0
aF0
aF0
aF0
aF0.75
aF0
aF0
aF-0.375
aF-0.375
aF1.2666666666666668
aF0.25
aF0
aF0
aF0
aF-0.022222222222222216
aF0
aF0.20624999999999993
aF0
aF0
aF0
aF0.43333333333333335
aF0
aF0
aF0
aF0.018809523809523814
aF0
aF0
aF0.40000000000000002
aF0.40000000000000002
aF1.05
aF0
aF0
aF0
aF0
aF0
aF0
aF0
aF0
aF0
aF0
asS'Kenzie'
p10
(lp11
F0
aF0
aF0
aF0
aF0
aF0
aF0
aF0
aF1.7928571428571429
aF-0.75
aF0
aF0
aF0
aF0
aF0
aF0
aF0
aF0
aF0
aF0
aF0
aF0
aF0
aF0
aF1.3530303030303032
aF1.2766666666666664
aF1.8702777777777779
aF0
aF0.050000000000000003
aF1.7717171717171718
aF2.4914351851851846
aF1.6783333333333332
aF0.62500000000000011
aF-0.41944444444444434
aF0
aF0.24583333333333335
aF4.6803075396825395
aF2.82125
aF0
aF-0.35555555555555557
aF1.7472222222222222
aF0.083333333333333329
aF-0.38869047619047614
aF0.090873015873015828
aF0
aF-0.044999999999999998
aF1.4920707070707069
aF-0.10000000000000001
aF-0.49999999999999983
aF-0.053617216117216093
aF0
aF0.2277777777777778
aF-0.22152777777777777
aF0
aF0
aF0.10000000000000001
aF0
aF0
aF0
aF0
aF0
aF0
aF-0.46428571428571419
aF0.97499999999999998
aF0.59999999999999998
aF2.2749999999999999
aF0.18055555555555564
aF2.541666666666667
aF0.40555555555555556
aF1.5696428571428571
aF0
aF3.1340277777777779
aF0.16944444444444443
aF1.1000000000000001
aF1.25
aF0
aF-0.125
aF0
aF0
aF0
aF0
aF3.5777777777777775
aF-0.11875000000000002
aF0.14999999999999997
aF1.1722222222222221
aF-0.25
aF3.4928571428571429
aF4.76070226070226
aF0
aF0.34111111111111114
aF2.3462301587301586
aF2.1863636363636365
aF2.291468253968254
aF0.10000000000000001
aF0
aF1.1322916666666667
aF0.80952380952380953
aF0.60138888888888886
aF0
aF1.2071428571428573
aF0.92499999999999993
aF-0.91984126984126946
aF0
aF0
aF0.066666666666666652
aF-0.083333333333333315
aF-0.025000000000000001
aF0
aF0.67499999999999993
aF0.5452380952380953
aF0
aF0.48749999999999999
aF-0.44999999999999984
aF0
aF0
aF0.3666666666666667
aF1.0819444444444444
aF0.67222222222222228
aF1.2857142857142854
aF2.1944444444444446
aF0.65625
aF0
aF0.67083333333333339
aF0.97083333333333344
aF1.1233333333333333
aF0.31250000000000011
aF-0.35000000000000009
aF0.20833333333333331
aF-0.34722222222222215
aF0
aF-0.18055555555555555
aF0
aF0
aF0
aF0
aF0
aF0
aF0
aF0
aF1.7928571428571429
aF-0.75
aF0
aF0
aF0
aF0
aF0
aF0
aF0
aF0
aF0
aF0
aF0
aF0
aF0
aF0
aF1.3530303030303032
aF1.2766666666666664
aF1.8702777777777779
aF0
aF0.050000000000000003
aF1.7717171717171718
aF2.4914351851851846
aF1.6783333333333332
aF0.62500000000000011
aF-0.41944444444444434
aF0
aF0.24583333333333335
aF0.24583333333333335
aF4.6803075396825395
aF2.82125
aF0
aF-0.35555555555555557
aF1.7472222222222222
aF0.083333333333333329
aF-0.38869047619047614
aF0.090873015873015828
aF0
aF-0.044999999999999998
aF-0.044999999999999998
aF1.4920707070707069
aF-0.10000000000000001
aF-0.49999999999999983
aF-0.053617216117216093
aF0
aF0.2277777777777778
aF-0.22152777777777777
aF0
aF0
aF0.10000000000000001
aF0
aF0
aF0
aF0
aF0
aF0
aF0
aF-0.46428571428571419
aF0.97499999999999998
aF0.59999999999999998
aF2.2749999999999999
aF0.18055555555555564
aF2.541666666666667
aF0.40555555555555556
aF1.5696428571428571
aF1.5696428571428571
aF0
aF3.1340277777777779
aF0.16944444444444443
aF1.1000000000000001
aF1.1000000000000001
aF1.25
aF0
aF-0.125
aF0
aF0
aF0
aF0
aF3.5777777777777775
aF3.5777777777777775
aF-0.11875000000000002
aF0.14999999999999997
aF1.1722222222222221
aF-0.25
aF3.4928571428571429
aF4.76070226070226
aF0
aF0.34111111111111114
aF0.34111111111111114
aF2.3462301587301586
aF2.1863636363636365
aF2.291468253968254
aF0.10000000000000001
aF0
aF1.1322916666666667
aF0.80952380952380953
aF0.60138888888888886
aF0
aF1.2071428571428573
aF0.92499999999999993
aF-0.91984126984126946
aF0
aF0
aF0
aF0.066666666666666652
aF-0.083333333333333315
aF-0.025000000000000001
aF0
aF0.67499999999999993
aF0.5452380952380953
aF0
aF0.48749999999999999
aF-0.44999999999999984
aF0
aF0
aF0.3666666666666667
aF1.0819444444444444
aF0.67222222222222228
aF1.2857142857142854
aF2.1944444444444446
aF0.65625
aF0
aF0.67083333333333339
aF0.67083333333333339
aF0.97083333333333344
aF1.1233333333333333
aF0.31250000000000011
aF-0.35000000000000009
aF0.20833333333333331
aF-0.34722222222222215
aF0
aF-0.18055555555555555
aF0
aF0
aF0
asS'Chris'
p12
(lp13
F0
aF0
aF0
aF0
aF0
aF0
aF0
aF0
aF0
aF0
aF0
aF0
aF0
aF0
aF0
aF0
aF0
aF0
aF0
aF0
aF0
aF0
aF0
aF0
aF0.36349206349206353
aF0.42673992673992656
aF0
aF0
aF0
aF0.14523809523809522
aF1.3093253968253966
aF1.1333333333333333
aF-0.46666666666666667
aF0.5
aF0
aF0.85999999999999999
aF1.2190476190476189
aF-0.13095238095238096
aF0
aF0.41666666666666663
aF0
aF0
aF-0.25416666666666665
aF-1.6291666666666667
aF0
aF0.074999999999999956
aF-0.01428571428571429
aF0.45336538461538461
aF0.024999999999999994
aF-0.10000000000000001
aF-0.125
aF0.89583333333333348
aF0.25
aF0
aF0
aF-0.86722222222222223
aF-0.036111111111111066
aF0.10000000000000001
aF0
aF0
aF0
aF1.7690476190476188
aF0
aF0
aF0.73472222222222217
aF0.35000000000000009
aF-0.16000000000000003
aF0.72222222222222221
aF0.375
aF1.1444444444444444
aF0
aF0.80833333333333335
aF0
aF0
aF0
aF0
aF0.5
aF0
aF0
aF0
aF0
aF3.5933333333333328
aF-0.4194444444444444
aF-1.0277777777777777
aF0.32709401709401686
aF-0.125
aF0
aF0
aF0
aF0
aF0
aF-0.20000000000000007
aF0.63333333333333341
aF0
aF0.042592592592592571
aF0.091666666666666688
aF0
aF0.46111111111111114
aF-0.20000000000000007
aF0
aF0
aF-0.049999999999999989
aF0
aF0.20000000000000001
aF0.30000000000000016
aF-0.44555555555555559
aF0
aF0
aF0
aF0
aF0
aF0
aF1
aF0
aF0
aF0
aF0
aF-0.25
aF-0.47499999999999998
aF-0.23809523809523808
aF0
aF0
aF0
aF0
aF-0.20833333333333334
aF0.42499999999999999
aF0
aF0.125
aF0
aF0
aF0
aF0
aF0
aF0
aF0
aF0
aF0
aF0
aF0
aF0
aF0
aF0
aF0
aF0
aF0
aF0
aF0
aF0
aF0
aF0
aF0
aF0
aF0
aF0
aF0
aF0.36349206349206353
aF0.42673992673992656
aF0
aF0
aF0
aF0.14523809523809522
aF1.3093253968253966
aF1.1333333333333333
aF-0.46666666666666667
aF0.5
aF0
aF0.85999999999999999
aF0.85999999999999999
aF1.2190476190476189
aF-0.13095238095238096
aF0
aF0.41666666666666663
aF0
aF0
aF-0.25416666666666665
aF-1.6291666666666667
aF0
aF0.074999999999999956
aF0.074999999999999956
aF-0.01428571428571429
aF0.45336538461538461
aF0.024999999999999994
aF-0.10000000000000001
aF-0.125
aF0.89583333333333348
aF0.25
aF0
aF0
aF-0.86722222222222223
aF-0.036111111111111066
aF0.10000000000000001
aF0
aF0
aF0
aF0
aF1.7690476190476188
aF0
aF0
aF0.73472222222222217
aF0.35000000000000009
aF-0.16000000000000003
aF0.72222222222222221
aF0.375
aF1.1444444444444444
aF1.1444444444444444
aF0
aF0.80833333333333335
aF0
aF0
aF0
aF0
aF0
aF0.5
aF0
aF0
aF0
aF0
aF3.5933333333333328
aF3.5933333333333328
aF-0.4194444444444444
aF-1.0277777777777777
aF0.32709401709401686
aF-0.125
aF0
aF0
aF0
aF0
aF0
aF0
aF-0.20000000000000007
aF0.63333333333333341
aF0
aF0.042592592592592571
aF0.091666666666666688
aF0
aF0.46111111111111114
aF-0.20000000000000007
aF0
aF0
aF-0.049999999999999989
aF0
aF0.20000000000000001
aF0.20000000000000001
aF0.30000000000000016
aF-0.44555555555555559
aF0
aF0
aF0
aF0
aF0
aF0
aF1
aF0
aF0
aF0
aF0
aF-0.25
aF-0.47499999999999998
aF-0.23809523809523808
aF0
aF0
aF0
aF0
aF0
aF-0.20833333333333334
aF0.42499999999999999
aF0
aF0.125
aF0
aF0
aF0
aF0
aF0
aF0
asS'Tattletale'
p14
(lp15
F0
aF0
aF0
aF0
aF0
aF0
aF0
aF0
aF0.13636363636363635
aF0
aF0
aF0
aF0
aF0
aF0
aF0
aF0
aF0
aF0
aF0
aF0
aF0
aF0
aF0
aF0
aF0
aF0
aF0
aF0.65555555555555556
aF0
aF0
aF0.25
aF0.13253968253968254
aF0
aF0
aF0
aF0.41666666666666669
aF0
aF0
aF0
aF0
aF0
aF0
aF0
aF0
aF0
aF0
aF0
aF0
aF0.435
aF1.7999999999999998
aF-0.30000000000000004
aF0
aF0
aF0
aF0
aF0
aF0
aF0.087499999999999967
aF0
aF-0.0625
aF0
aF0
aF0.5
aF1.2
aF0.98571428571428565
aF0.7583333333333333
aF-0.26435786435786446
aF-0.25
aF0
aF0
aF0
aF0
aF0
aF0
aF0
aF0
aF0
aF0
aF0
aF0
aF0
aF0
aF0
aF0
aF0
aF0
aF0
aF0
aF0
aF0
aF0
aF0
aF0
aF0
aF0
aF0
aF0
aF0
aF0
aF0
aF0
aF0
aF0
aF0
aF0
aF0
aF0
aF0
aF0
aF0
aF0
aF0
aF0
aF0
aF0
aF0
aF0
aF0
aF0
aF0
aF0
aF0
aF0
aF0.25
aF-0.29999999999999999
aF-0.19687499999999999
aF2.0002976190476192
aF0
aF0.1027777777777778
aF0
aF0
aF0
aF0
aF0
aF0
aF0
aF0
aF0
aF0.13636363636363635
aF0
aF0
aF0
aF0
aF0
aF0
aF0
aF0
aF0
aF0
aF0
aF0
aF0
aF0
aF0
aF0
aF0
aF0
aF0
aF0.65555555555555556
aF0
aF0
aF0.25
aF0.13253968253968254
aF0
aF0
aF0
aF0
aF0.41666666666666669
aF0
aF0
aF0
aF0
aF0
aF0
aF0
aF0
aF0
aF0
aF0
aF0
aF0
aF0.435
aF1.7999999999999998
aF-0.30000000000000004
aF0
aF0
aF0
aF0
aF0
aF0
aF0.087499999999999967
aF0
aF-0.0625
aF-0.0625
aF0
aF0
aF0.5
aF1.2
aF0.98571428571428565
aF0.7583333333333333
aF-0.26435786435786446
aF-0.25
aF0
aF0
aF0
aF0
aF0
aF0
aF0
aF0
aF0
aF0
aF0
aF0
aF0
aF0
aF0
aF0
aF0
aF0
aF0
aF0
aF0
aF0
aF0
aF0
aF0
aF0
aF0
aF0
aF0
aF0
aF0
aF0
aF0
aF0
aF0
aF0
aF0
aF0
aF0
aF0
aF0
aF0
aF0
aF0
aF0
aF0
aF0
aF0
aF0
aF0
aF0
aF0
aF0
aF0
aF0
aF0
aF0
aF0
aF0
aF0
aF0
aF0.25
aF-0.29999999999999999
aF-0.19687499999999999
aF2.0002976190476192
aF0
aF0.1027777777777778
aF0
aF0
aF0
aF0
asS'Carol'
p16
(lp17
F0
aF0
aF0
aF0.5
aF0
aF0
aF0
aF0
aF0
aF-0.025000000000000001
aF0
aF0
aF0
aF0
aF0
aF0
aF-0.18181818181818182
aF0.96666666666666656
aF0
aF0
aF0.20000000000000001
aF0.033333333333333354
aF0
aF-0.69999999999999984
aF0
aF-0.050000000000000003
aF0
aF0
aF0
aF0
aF0
aF0
aF0.91666666666666663
aF1.4275000000000002
aF0
aF0
aF0
aF0
aF0
aF0
aF0.087499999999999994
aF0
aF0.10753968253968249
aF0
aF-0.17222222222222228
aF0.20000000000000001
aF0.024999999999999994
aF0
aF0
aF0.081666666666666651
aF1.0333333333333332
aF0
aF0.89999999999999991
aF0
aF-0.35000000000000003
aF0
aF0
aF0
aF0
aF0
aF0
aF0
aF0.20000000000000001
aF0
aF0
aF0
aF0.20000000000000001
aF0
aF0.5
aF0
aF0
aF-0.20000000000000001
aF0.54999999999999993
aF1.8
aF0
aF0
aF0
aF0.11625000000000001
aF0
aF0
aF0
aF0.44999999999999996
aF0
aF-0.29999999999999999
aF0
aF0
aF1.5999999999999999
aF-0.037373737373737392
aF0
aF-0.31388888888888888
aF-0.41249999999999998
aF0.14999999999999999
aF0
aF0
aF0
aF0
aF0
aF0.099999999999999978
aF0
aF0
aF-0.25555555555555559
aF0.92500000000000004
aF0
aF0.54190476190476189
aF0
aF0
aF0
aF0
aF0
aF0
aF0
aF-0.25
aF0
aF0
aF0
aF0
aF0
aF0
aF0
aF0
aF0
aF0
aF1.6916666666666664
aF0
aF0
aF0
aF0
aF0
aF0
aF0
aF0
aF0
aF0
aF0
aF0.5
aF0
aF0
aF0
aF0
aF0
aF-0.025000000000000001
aF0
aF0
aF0
aF0
aF0
aF0
aF-0.18181818181818182
aF0.96666666666666656
aF0
aF0
aF0.20000000000000001
aF0.033333333333333354
aF0
aF-0.69999999999999984
aF0
aF-0.050000000000000003
aF0
aF0
aF0
aF0
aF0
aF0
aF0.91666666666666663
aF1.4275000000000002
aF0
aF0
aF0
aF0
aF0
aF0
aF0
aF0.087499999999999994
aF0
aF0.10753968253968249
aF0
aF-0.17222222222222228
aF0.20000000000000001
aF0.20000000000000001
aF0.024999999999999994
aF0
aF0
aF0.081666666666666651
aF1.0333333333333332
aF0
aF0.89999999999999991
aF0
aF-0.35000000000000003
aF0
aF0
aF0
aF0
aF0
aF0
aF0
aF0
aF0.20000000000000001
aF0
aF0
aF0
aF0.20000000000000001
aF0
aF0.5
aF0
aF0
aF0
aF-0.20000000000000001
aF0.54999999999999993
aF1.8
aF1.8
aF0
aF0
aF0
aF0.11625000000000001
aF0
aF0
aF0
aF0.44999999999999996
aF0.44999999999999996
aF0
aF-0.29999999999999999
aF0
aF0
aF1.5999999999999999
aF-0.037373737373737392
aF0
aF-0.31388888888888888
aF-0.31388888888888888
aF-0.41249999999999998
aF0.14999999999999999
aF0
aF0
aF0
aF0
aF0
aF0.099999999999999978
aF0
aF0
aF-0.25555555555555559
aF0.92500000000000004
aF0
aF0.54190476190476189
aF0.54190476190476189
aF0
aF0
aF0
aF0
aF0
aF0
aF0
aF-0.25
aF0
aF0
aF0
aF0
aF0
aF0
aF0
aF0
aF0
aF0
aF1.6916666666666664
aF1.6916666666666664
aF0
aF0
aF0
aF0
aF0
aF0
aF0
aF0
aF0
aF0
aF0
as.